
CMG52014.elf:     file format elf32-littlenios2
CMG52014.elf
architecture: nios2, flags 0x00000112:
EXEC_P, HAS_SYMS, D_PAGED
start address 0x000001bc

Program Header:
    LOAD off    0x00001000 vaddr 0x00000000 paddr 0x00000000 align 2**12
         filesz 0x00000020 memsz 0x00000020 flags r-x
    LOAD off    0x00001020 vaddr 0x00000020 paddr 0x00000020 align 2**12
         filesz 0x0000ddfc memsz 0x0000ddfc flags r-x
    LOAD off    0x0000ee1c vaddr 0x0000de1c paddr 0x0000fb0c align 2**12
         filesz 0x00001cf0 memsz 0x00001cf0 flags rw-
    LOAD off    0x000117fc vaddr 0x000117fc paddr 0x000117fc align 2**12
         filesz 0x00000000 memsz 0x000002fc flags rw-

Sections:
Idx Name          Size      VMA       LMA       File off  Algn
  0 .entry        00000020  00000000  00000000  00001000  2**5
                  CONTENTS, ALLOC, LOAD, READONLY, CODE
  1 .exceptions   0000019c  00000020  00000020  00001020  2**2
                  CONTENTS, ALLOC, LOAD, READONLY, CODE
  2 .text         0000d7dc  000001bc  000001bc  000011bc  2**2
                  CONTENTS, ALLOC, LOAD, READONLY, CODE
  3 .rodata       00000484  0000d998  0000d998  0000e998  2**2
                  CONTENTS, ALLOC, LOAD, READONLY, DATA
  4 .rwdata       00001cf0  0000de1c  0000fb0c  0000ee1c  2**2
                  CONTENTS, ALLOC, LOAD, DATA, SMALL_DATA
  5 .bss          000002fc  000117fc  000117fc  000117fc  2**2
                  ALLOC, SMALL_DATA
  6 .comment      00000023  00000000  00000000  00010b0c  2**0
                  CONTENTS, READONLY
  7 .debug_aranges 00000dc0  00000000  00000000  00010b30  2**3
                  CONTENTS, READONLY, DEBUGGING
  8 .debug_info   0002523d  00000000  00000000  000118f0  2**0
                  CONTENTS, READONLY, DEBUGGING
  9 .debug_abbrev 000095f5  00000000  00000000  00036b2d  2**0
                  CONTENTS, READONLY, DEBUGGING
 10 .debug_line   0000acad  00000000  00000000  00040122  2**0
                  CONTENTS, READONLY, DEBUGGING
 11 .debug_frame  00001b60  00000000  00000000  0004add0  2**2
                  CONTENTS, READONLY, DEBUGGING
 12 .debug_str    00003144  00000000  00000000  0004c930  2**0
                  CONTENTS, READONLY, DEBUGGING
 13 .debug_loc    0001154e  00000000  00000000  0004fa74  2**0
                  CONTENTS, READONLY, DEBUGGING
 14 .debug_alt_sim_info 00000010  00000000  00000000  00060fc4  2**2
                  CONTENTS, READONLY, DEBUGGING
 15 .debug_ranges 00000a98  00000000  00000000  00060fd8  2**3
                  CONTENTS, READONLY, DEBUGGING
 16 .thread_model 00000003  00000000  00000000  00064fc1  2**0
                  CONTENTS, READONLY
 17 .cpu          00000003  00000000  00000000  00064fc4  2**0
                  CONTENTS, READONLY
 18 .qsys         00000001  00000000  00000000  00064fc7  2**0
                  CONTENTS, READONLY
 19 .simulation_enabled 00000001  00000000  00000000  00064fc8  2**0
                  CONTENTS, READONLY
 20 .sysid_hash   00000004  00000000  00000000  00064fc9  2**0
                  CONTENTS, READONLY
 21 .sysid_base   00000004  00000000  00000000  00064fcd  2**0
                  CONTENTS, READONLY
 22 .sysid_time   00000004  00000000  00000000  00064fd1  2**0
                  CONTENTS, READONLY
 23 .stderr_dev   00000009  00000000  00000000  00064fd5  2**0
                  CONTENTS, READONLY
 24 .stdin_dev    00000009  00000000  00000000  00064fde  2**0
                  CONTENTS, READONLY
 25 .stdout_dev   00000009  00000000  00000000  00064fe7  2**0
                  CONTENTS, READONLY
 26 .sopc_system_name 0000000b  00000000  00000000  00064ff0  2**0
                  CONTENTS, READONLY
 27 .quartus_project_dir 0000002f  00000000  00000000  00064ffb  2**0
                  CONTENTS, READONLY
 28 .jdi          00004de3  00000000  00000000  0006502a  2**0
                  CONTENTS, READONLY
 29 .sopcinfo     000a1eeb  00000000  00000000  00069e0d  2**0
                  CONTENTS, READONLY
SYMBOL TABLE:
00000000 l    d  .entry	00000000 .entry
00000020 l    d  .exceptions	00000000 .exceptions
000001bc l    d  .text	00000000 .text
0000d998 l    d  .rodata	00000000 .rodata
0000de1c l    d  .rwdata	00000000 .rwdata
000117fc l    d  .bss	00000000 .bss
00000000 l    d  .comment	00000000 .comment
00000000 l    d  .debug_aranges	00000000 .debug_aranges
00000000 l    d  .debug_info	00000000 .debug_info
00000000 l    d  .debug_abbrev	00000000 .debug_abbrev
00000000 l    d  .debug_line	00000000 .debug_line
00000000 l    d  .debug_frame	00000000 .debug_frame
00000000 l    d  .debug_str	00000000 .debug_str
00000000 l    d  .debug_loc	00000000 .debug_loc
00000000 l    d  .debug_alt_sim_info	00000000 .debug_alt_sim_info
00000000 l    d  .debug_ranges	00000000 .debug_ranges
00000000 l    df *ABS*	00000000 ../CMG52014_bsp//obj/HAL/src/crt0.o
000001f4 l       .text	00000000 alt_after_alt_main
00000000 l    df *ABS*	00000000 alt_exception_entry.o
00000094 l       .exceptions	00000000 alt_exception_unknown
00000000 l    df *ABS*	00000000 alt_irq_handler.c
00000000 l    df *ABS*	00000000 DE0.c
00000000 l    df *ABS*	00000000 cm.c
00000000 l    df *ABS*	00000000 printf.c
00000000 l    df *ABS*	00000000 putchar.c
00000000 l    df *ABS*	00000000 sprintf.c
00000000 l    df *ABS*	00000000 vfprintf.c
000015a8 l     F .text	00000034 __sprint_r
0000da36 l     O .rodata	00000010 blanks.3515
0000da46 l     O .rodata	00000010 zeroes.3516
00000000 l    df *ABS*	00000000 wsetup.c
00000000 l    df *ABS*	00000000 dtoa.c
000035f0 l     F .text	0000023c quorem
00000000 l    df *ABS*	00000000 fflush.c
00000000 l    df *ABS*	00000000 findfp.c
00005060 l     F .text	00000008 __fp_lock
00005068 l     F .text	00000008 __fp_unlock
00000000 l    df *ABS*	00000000 mallocr.c
00000000 l    df *ABS*	00000000 fvwrite.c
00000000 l    df *ABS*	00000000 fwalk.c
00000000 l    df *ABS*	00000000 impure.c
0000de1c l     O .rwdata	00000400 impure_data
00000000 l    df *ABS*	00000000 locale.c
0000da7c l     O .rodata	00000030 lconv
00000000 l    df *ABS*	00000000 makebuf.c
00000000 l    df *ABS*	00000000 mallocr.c
00000000 l    df *ABS*	00000000 memchr.c
00000000 l    df *ABS*	00000000 memcpy.c
00000000 l    df *ABS*	00000000 memmove.c
00000000 l    df *ABS*	00000000 memset.c
00000000 l    df *ABS*	00000000 mprec.c
0000dbc4 l     O .rodata	0000000c p05.2435
00000000 l    df *ABS*	00000000 putc.c
00000000 l    df *ABS*	00000000 mallocr.c
00000000 l    df *ABS*	00000000 s_isinfd.c
00000000 l    df *ABS*	00000000 s_isnand.c
00000000 l    df *ABS*	00000000 sbrkr.c
00000000 l    df *ABS*	00000000 stdio.c
00000000 l    df *ABS*	00000000 strcmp.c
00000000 l    df *ABS*	00000000 strlen.c
00000000 l    df *ABS*	00000000 wbuf.c
00000000 l    df *ABS*	00000000 writer.c
00000000 l    df *ABS*	00000000 mallocr.c
00000000 l    df *ABS*	00000000 closer.c
00000000 l    df *ABS*	00000000 fclose.c
00000000 l    df *ABS*	00000000 fstatr.c
00000000 l    df *ABS*	00000000 int_errno.c
00000000 l    df *ABS*	00000000 isattyr.c
00000000 l    df *ABS*	00000000 lseekr.c
00000000 l    df *ABS*	00000000 readr.c
00000000 l    df *ABS*	00000000 libgcc2.c
00000000 l    df *ABS*	00000000 libgcc2.c
00000000 l    df *ABS*	00000000 fp-bit.c
000099d4 l     F .text	00000354 _fpadd_parts
00000000 l    df *ABS*	00000000 fp-bit.c
00000000 l    df *ABS*	00000000 fp-bit.c
00000000 l    df *ABS*	00000000 fp-bit.c
00000000 l    df *ABS*	00000000 fp-bit.c
00000000 l    df *ABS*	00000000 fp-bit.c
00000000 l    df *ABS*	00000000 fp-bit.c
00000000 l    df *ABS*	00000000 fp-bit.c
00000000 l    df *ABS*	00000000 fp-bit.c
00000000 l    df *ABS*	00000000 fp-bit.c
00000000 l    df *ABS*	00000000 fp-bit.c
00000000 l    df *ABS*	00000000 fp-bit.c
00000000 l    df *ABS*	00000000 lib2-divmod.c
0000a714 l     F .text	00000074 udivmodsi4
00000000 l    df *ABS*	00000000 lib2-mul.c
00000000 l    df *ABS*	00000000 libgcc2.c
00000000 l    df *ABS*	00000000 libgcc2.c
00000000 l    df *ABS*	00000000 libgcc2.c
00000000 l    df *ABS*	00000000 fp-bit.c
00000000 l    df *ABS*	00000000 fp-bit.c
00000000 l    df *ABS*	00000000 fp-bit.c
00000000 l    df *ABS*	00000000 libgcc2.c
00000000 l    df *ABS*	00000000 libgcc2.c
00000000 l    df *ABS*	00000000 alt_close.c
0000aea8 l     F .text	00000050 alt_get_errno
00000000 l    df *ABS*	00000000 alt_dev.c
0000afc4 l     F .text	0000002c alt_dev_null_write
00000000 l    df *ABS*	00000000 alt_errno.c
00000000 l    df *ABS*	00000000 alt_fstat.c
0000aff0 l     F .text	00000050 alt_get_errno
00000000 l    df *ABS*	00000000 alt_isatty.c
0000b0f0 l     F .text	00000050 alt_get_errno
00000000 l    df *ABS*	00000000 alt_load.c
0000b1e4 l     F .text	0000006c alt_load_section
00000000 l    df *ABS*	00000000 alt_lseek.c
0000b2d0 l     F .text	00000050 alt_get_errno
00000000 l    df *ABS*	00000000 alt_main.c
00000000 l    df *ABS*	00000000 alt_malloc_lock.c
00000000 l    df *ABS*	00000000 alt_read.c
0000b4ac l     F .text	00000050 alt_get_errno
00000000 l    df *ABS*	00000000 alt_release_fd.c
00000000 l    df *ABS*	00000000 alt_sbrk.c
0000fafc l     O .rwdata	00000004 heap_end
00000000 l    df *ABS*	00000000 alt_write.c
0000b720 l     F .text	00000050 alt_get_errno
00000000 l    df *ABS*	00000000 alt_sys_init.c
0000b860 l     F .text	00000038 alt_dev_reg
0000e7d8 l     O .rwdata	00001060 JTAG_UART
0000f838 l     O .rwdata	0000002c dc_mot_DIR
0000f864 l     O .rwdata	0000002c dc_mot_PWM_SEL
0000f890 l     O .rwdata	0000002c dc_mot_STOP
0000f8bc l     O .rwdata	0000002c Expansion_JP2
0000f8e8 l     O .rwdata	0000002c HEX3_HEX0
0000f914 l     O .rwdata	0000002c msp430
0000f940 l     O .rwdata	0000002c Pushbuttons
0000f96c l     O .rwdata	0000002c raspi
0000f998 l     O .rwdata	0000002c servo_pos_0
0000f9c4 l     O .rwdata	0000002c servo_pos_1
0000f9f0 l     O .rwdata	0000002c Slider_switches
0000fa1c l     O .rwdata	0000002c step_DIR
0000fa48 l     O .rwdata	0000002c step_PWM
0000fa74 l     O .rwdata	0000002c step_STOP
0000faa0 l     O .rwdata	0000002c Serial_port
00000000 l    df *ABS*	00000000 altera_avalon_jtag_uart_fd.c
00000000 l    df *ABS*	00000000 altera_avalon_jtag_uart_init.c
0000bbf8 l     F .text	00000208 altera_avalon_jtag_uart_irq
0000be00 l     F .text	000000a4 altera_avalon_jtag_uart_timeout
00000000 l    df *ABS*	00000000 altera_avalon_jtag_uart_ioctl.c
00000000 l    df *ABS*	00000000 altera_avalon_jtag_uart_read.c
00000000 l    df *ABS*	00000000 altera_avalon_jtag_uart_write.c
00000000 l    df *ABS*	00000000 altera_avalon_timer_sc.c
0000c43c l     F .text	00000078 alt_avalon_timer_sc_irq
00000000 l    df *ABS*	00000000 altera_up_avalon_rs232.c
00000000 l    df *ABS*	00000000 alt_alarm_start.c
00000000 l    df *ABS*	00000000 alt_dcache_flush_all.c
00000000 l    df *ABS*	00000000 alt_dev_llist_insert.c
0000ca2c l     F .text	00000050 alt_get_errno
00000000 l    df *ABS*	00000000 alt_do_ctors.c
00000000 l    df *ABS*	00000000 alt_do_dtors.c
00000000 l    df *ABS*	00000000 alt_find_dev.c
00000000 l    df *ABS*	00000000 alt_icache_flush_all.c
00000000 l    df *ABS*	00000000 alt_io_redirect.c
0000cc80 l     F .text	000000e0 alt_open_fd
00000000 l    df *ABS*	00000000 alt_irq_register.c
00000000 l    df *ABS*	00000000 alt_irq_vars.c
00000000 l    df *ABS*	00000000 alt_open.c
0000cf88 l     F .text	00000050 alt_get_errno
0000cfd8 l     F .text	000000f0 alt_file_locked
00000000 l    df *ABS*	00000000 alt_tick.c
00000000 l    df *ABS*	00000000 altera_nios2_qsys_irq.c
00000000 l    df *ABS*	00000000 alt_find_file.c
00000000 l    df *ABS*	00000000 alt_get_fd.c
00000000 l    df *ABS*	00000000 atexit.c
00000000 l    df *ABS*	00000000 exit.c
00000000 l    df *ABS*	00000000 memcmp.c
00000000 l    df *ABS*	00000000 __atexit.c
00000000 l    df *ABS*	00000000 __call_atexit.c
00000000 l    df *ABS*	00000000 alt_exit.c
00000000 l    df *ABS*	00000000 
0000085c g     F .text	00000110 MACHINE
000014c8 g     F .text	0000001c putchar
00007b20 g     F .text	00000074 _mprec_log10
00007c10 g     F .text	00000084 __any_on
00008c20 g     F .text	00000064 _isatty_r
0000daac g     O .rodata	00000028 __mprec_tinytens
0000b3f4 g     F .text	00000078 alt_main
0000ae64 g     F .text	00000044 __ashldi3
00011868 g     O .bss	00000100 alt_irq
00008c84 g     F .text	0000006c _lseek_r
00000780 g     F .text	00000094 RESET
0000fb0c g       *ABS*	00000000 __flash_rwdata_start
0000a274 g     F .text	0000005c __eqdf2
00011af8 g       *ABS*	00000000 __alt_heap_start
00001484 g     F .text	0000003c printf
000085e0 g     F .text	0000005c __sseek
00005104 g     F .text	0000010c __sinit
00008774 g     F .text	0000013c __swbuf_r
00005d9c g     F .text	0000009c _setlocale_r
00011804 g     O .bss	00000001 BALL_WAIT_FLAG
0000507c g     F .text	00000078 __sfmoreglue
0000b48c g     F .text	00000020 __malloc_unlock
0000c750 g     F .text	000000a0 alt_up_rs232_read_fd
000069dc g     F .text	0000018c memmove
000050f4 g     F .text	00000010 _cleanup
00006c44 g     F .text	000000a8 _Balloc
00000688 g     F .text	000000f8 INIT_GPIO
0000a32c g     F .text	00000064 __gtdf2
00000000  w      *UND*	00000000 __errno
00000000 g     F .entry	0000000c __reset
00000020 g       *ABS*	00000000 __flash_exceptions_start
00008bb8 g     F .text	00000068 _fstat_r
00011824 g     O .bss	00000004 errno
0001182c g     O .bss	00000004 alt_argv
00017acc g       *ABS*	00000000 _gp
0000023c g     F .text	00000178 INT_7SEG
0000e658 g     O .rwdata	00000180 alt_fd_list
000014c0 g     F .text	00000008 _putchar_r
0000cbd4 g     F .text	00000090 alt_find_dev
0000689c g     F .text	00000140 memcpy
00005070 g     F .text	0000000c _cleanup_r
0000a450 g     F .text	000000d4 __floatsidf
0000cd60 g     F .text	00000078 alt_io_redirect
0000a3f4 g     F .text	0000005c __ltdf2
0000d998 g       *ABS*	00000000 __DTOR_END__
0000c6dc g     F .text	00000074 alt_up_rs232_read_data
00007a7c g     F .text	000000a4 __ratio
0000c000 g     F .text	00000218 altera_avalon_jtag_uart_read
00000000  w      *UND*	00000000 malloc
00001458 g     F .text	0000002c _printf_r
0000a834 g     F .text	00000008 __udivsi3
0000b140 g     F .text	000000a4 isatty
0000dafc g     O .rodata	000000c8 __mprec_tens
00005e38 g     F .text	0000000c __locale_charset
00011820 g     O .bss	00000004 __malloc_top_pad
0000fad8 g     O .rwdata	00000004 __mb_cur_max
00005e44 g     F .text	0000000c _localeconv_r
00000f40 g     F .text	00000078 STEPPER
00007074 g     F .text	0000003c __i2b
00005758 g     F .text	000004e4 __sfvwrite_r
000084a0 g     F .text	00000064 _sbrk_r
00008cf0 g     F .text	0000006c _read_r
0000e21c g     O .rwdata	0000000c __lc_ctype
0000faf4 g     O .rwdata	00000004 alt_max_fd
0000c65c g     F .text	00000044 alt_up_rs232_check_parity
0000ac4c g     F .text	00000104 __unpack_d
00008a68 g     F .text	0000013c _fclose_r
00005030 g     F .text	00000030 fflush
0001181c g     O .bss	00000004 __malloc_max_sbrked_mem
0000cdd8 g     F .text	000001b0 alt_irq_register
00009d28 g     F .text	00000054 __adddf3
000077f0 g     F .text	00000148 __b2d
00000afc g     F .text	0000016c STATE_3
000093ac g     F .text	00000628 __umoddi3
00000e70 g     F .text	00000058 SERVO
0000b320 g     F .text	000000d4 lseek
0000fad0 g     O .rwdata	00000004 _global_impure_ptr
00007e40 g     F .text	000005fc _realloc_r
00011af8 g       *ABS*	00000000 __bss_end
0000d2b8 g     F .text	00000104 alt_tick
00008d5c g     F .text	00000650 __udivdi3
0000dad4 g     O .rodata	00000028 __mprec_bigtens
00006e58 g     F .text	00000104 __s2b
00000a4c g     F .text	000000b0 STATE_2
0000a5f8 g     F .text	0000011c __floatunsidf
00007590 g     F .text	00000058 __mcmp
0000531c g     F .text	00000018 __fp_lock_all
00000ec8 g     F .text	00000078 DC_MOT
0000d220 g     F .text	00000098 alt_alarm_stop
000117fc g     O .bss	00000004 DEBUG_MSP
00011834 g     O .bss	00000004 alt_irq_active
000000ec g     F .exceptions	000000d0 alt_irq_handler
0000e630 g     O .rwdata	00000028 alt_dev_null
00000814 g     F .text	00000048 READY
0000ca10 g     F .text	0000001c alt_dcache_flush_all
00006f5c g     F .text	00000068 __hi0bits
0000a524 g     F .text	000000d4 __fixdfsi
0000fb0c g       *ABS*	00000000 __ram_rwdata_end
0000faec g     O .rwdata	00000008 alt_dev_list
0000b770 g     F .text	000000f0 write
00007c94 g     F .text	000000bc _putc_r
0000de1c g       *ABS*	00000000 __ram_rodata_end
00011800 g     O .bss	00000004 DEBUG
0000b040 g     F .text	000000b0 fstat
0000c7f0 g     F .text	000000a0 alt_up_rs232_write_fd
0000ae20 g     F .text	00000044 __lshrdi3
00007308 g     F .text	0000012c __pow5mult
00011814 g     O .bss	00000004 __nlocale_changed
0000a83c g     F .text	00000008 __umodsi3
00000d54 g     F .text	0000009c STATE_6
08000000 g       *ABS*	00000000 __alt_mem_Onchip_memory_SRAM
00011af8 g       *ABS*	00000000 end
00000c68 g     F .text	00000070 STATE_4
0000bb44 g     F .text	000000b4 altera_avalon_jtag_uart_init
0000d998 g       *ABS*	00000000 __CTOR_LIST__
00800000 g       *ABS*	00000000 __alt_stack_pointer
0000c4b4 g     F .text	00000080 alt_avalon_timer_sc_init
0000a97c g     F .text	000000ac __clzsi2
0000c218 g     F .text	00000224 altera_avalon_jtag_uart_write
0000530c g     F .text	00000004 __sfp_lock_acquire
000067a4 g     F .text	000000f8 memchr
000015dc g     F .text	00001e7c ___vfprintf_internal_r
000014e4 g     F .text	00000058 _sprintf_r
00005488 g     F .text	000002d0 _free_r
0000d7bc g     F .text	000001a0 __call_exitprocs
00011810 g     O .bss	00000004 __mlocale_changed
0000fadc g     O .rwdata	00000004 __malloc_sbrk_base
000001bc g     F .text	0000003c _start
00011838 g     O .bss	00000004 _alt_tick_rate
0000facc g     O .rwdata	00000001 STATE
00007434 g     F .text	0000015c __lshift
0001183c g     O .bss	00000004 _alt_nticks
0000b4fc g     F .text	000000f4 read
0000b8cc g     F .text	00000114 alt_sys_init
0000d68c g     F .text	00000130 __register_exitproc
0000c620 g     F .text	0000003c alt_up_rs232_get_available_space_in_write_FIFO
000070b0 g     F .text	00000258 __multiply
0000bea4 g     F .text	00000068 altera_avalon_jtag_uart_close
0000a844 g     F .text	00000028 __mulsi3
0000de1c g       *ABS*	00000000 __ram_rwdata_start
0000d998 g       *ABS*	00000000 __ram_rodata_start
00011840 g     O .bss	00000028 __malloc_current_mallinfo
00007938 g     F .text	00000144 __d2b
0000b9e0 g     F .text	00000060 altera_avalon_jtag_uart_read_fd
0000d4f0 g     F .text	000000d4 alt_get_fd
0000ad50 g     F .text	000000d0 __fpcmp_parts_d
00008a04 g     F .text	00000064 _close_r
000005e4 g     F .text	000000a4 digitalRead_GPIO
0000d610 g     F .text	0000007c memcmp
0000baa0 g     F .text	00000050 altera_avalon_jtag_uart_close_fd
00011af8 g       *ABS*	00000000 __alt_stack_base
0000baf0 g     F .text	00000054 altera_avalon_jtag_uart_ioctl_fd
0000347c g     F .text	00000174 __swsetup_r
0000a0c0 g     F .text	000001b4 __divdf3
00005210 g     F .text	000000fc __sfp
00007b94 g     F .text	0000007c __copybits
00000cd8 g     F .text	0000007c STATE_5
0000e228 g     O .rwdata	00000408 __malloc_av_
00005318 g     F .text	00000004 __sinit_lock_release
00009ddc g     F .text	000002e4 __muldf3
00008504 g     F .text	00000054 __sread
0000c588 g     F .text	00000058 alt_up_rs232_disable_read_interrupt
0000d3dc g     F .text	00000114 alt_find_file
0000ca7c g     F .text	000000a0 alt_dev_llist_insert
0000b46c g     F .text	00000020 __malloc_lock
0000b670 g     F .text	000000b0 sbrk
00004e48 g     F .text	000001e8 _fflush_r
00008938 g     F .text	000000cc _calloc_r
000117fc g       *ABS*	00000000 __bss_start
00006b68 g     F .text	000000dc memset
00000fb8 g     F .text	000004a0 main
00011830 g     O .bss	00000004 alt_envp
00011818 g     O .bss	00000004 __malloc_max_total_mem
0000ba40 g     F .text	00000060 altera_avalon_jtag_uart_write_fd
000088b0 g     F .text	0000001c __swbuf
0000863c g     F .text	00000008 __sclose
00800000 g       *ABS*	00000000 __alt_heap_limit
00008ba4 g     F .text	00000014 fclose
00011968 g     O .bss	00000190 _atexit0
0000382c g     F .text	0000161c _dtoa_r
00006020 g     F .text	00000784 _malloc_r
0000faf8 g     O .rwdata	00000004 alt_errno
00005c3c g     F .text	000000a8 _fwalk
00007d50 g     F .text	000000f0 putc
0000a788 g     F .text	00000050 __divsi3
0000dbd0 g     O .rodata	00000014 __thenan_df
0000534c g     F .text	0000013c _malloc_trim_r
0000d998 g       *ABS*	00000000 __CTOR_END__
00008644 g     F .text	000000a4 strcmp
0000d998 g       *ABS*	00000000 __flash_rodata_start
0000d998 g       *ABS*	00000000 __DTOR_LIST__
0000c890 g     F .text	00000040 alt_up_rs232_open_dev
0000a2d0 g     F .text	0000005c __nedf2
0000b898 g     F .text	00000034 alt_irq_init
0000b5f0 g     F .text	00000080 alt_release_fd
0000153c g     F .text	0000006c sprintf
0000dbe4 g     O .rodata	00000100 __clz_tab
0001180c g     O .bss	00000004 _PathLocale
0000d5c4 g     F .text	00000014 atexit
000088cc g     F .text	0000006c _write_r
00005e50 g     F .text	0000001c setlocale
000001f8 g     F .text	00000044 DELAY_CYCLES
0000fad4 g     O .rwdata	00000004 _impure_ptr
00011828 g     O .bss	00000004 alt_argc
0000050c g     F .text	000000d8 digitalWrite_GPIO
0000cb78 g     F .text	0000005c _do_dtors
00000020 g       .exceptions	00000000 alt_irq_entry
00007790 g     F .text	00000060 __ulp
0000843c g     F .text	00000038 __isinfd
00005334 g     F .text	00000018 __fp_unlock_all
0000fae4 g     O .rwdata	00000008 alt_fs_list
0000096c g     F .text	000000e0 STATE_1
0000c534 g     F .text	00000054 alt_up_rs232_enable_read_interrupt
00011808 g     O .bss	00000004 POLL_COUNT
0000c6a0 g     F .text	0000003c alt_up_rs232_write_data
00000020 g       *ABS*	00000000 __ram_exceptions_start
00005e6c g     F .text	0000000c localeconv
0000fb0c g       *ABS*	00000000 _edata
00011af8 g       *ABS*	00000000 _end
000001bc g       *ABS*	00000000 __ram_exceptions_end
0000bf0c g     F .text	000000f4 altera_avalon_jtag_uart_ioctl
00008558 g     F .text	00000088 __swrite
0000fae0 g     O .rwdata	00000004 __malloc_trim_threshold
0000d3bc g     F .text	00000020 altera_nios2_qsys_irq_init
0000d5d8 g     F .text	00000038 exit
00005ce4 g     F .text	000000b8 _fwalk_reent
000075e8 g     F .text	000001a8 __mdiff
0000a7d8 g     F .text	0000005c __modsi3
00800000 g       *ABS*	00000000 __alt_data_end
00000020 g     F .exceptions	00000000 alt_exception
00005310 g     F .text	00000004 __sfp_lock_release
00000000 g       *ABS*	00000000 __alt_mem_sdram
0000d95c g     F .text	0000003c _exit
00008474 g     F .text	0000002c __isnand
0000c8d0 g     F .text	00000140 alt_alarm_start
0000a86c g     F .text	00000110 __muldi3
00005e78 g     F .text	000001a8 __smakebuf_r
000086e8 g     F .text	0000008c strlen
0000d0c8 g     F .text	00000158 open
0000a390 g     F .text	00000064 __gedf2
000003b4 g     F .text	00000158 SEG_OUT
00000df0 g     F .text	00000080 STATE_7
0000cc64 g     F .text	0000001c alt_icache_flush_all
0000fb00 g     O .rwdata	00000004 alt_priority_mask
00003458 g     F .text	00000024 __vfprintf_internal
00009d7c g     F .text	00000060 __subdf3
00006fc4 g     F .text	000000b0 __lo0bits
0000fb04 g     O .rwdata	00000008 alt_alarm_list
0000cb1c g     F .text	0000005c _do_ctors
09000000 g       *ABS*	00000000 __alt_mem_Onchip_memory
0000c5e0 g     F .text	00000040 alt_up_rs232_get_used_space_in_read_FIFO
0000aef8 g     F .text	000000cc close
0000b250 g     F .text	00000080 alt_load
0000aa28 g     F .text	00000224 __pack_d
00000000  w      *UND*	00000000 free
00005314 g     F .text	00000004 __sinit_lock_acquire
00006d14 g     F .text	00000144 __multadd
00006cec g     F .text	00000028 _Bfree



Disassembly of section .entry:

00000000 <__reset>:
 * Jump to the _start entry point in the .text section if reset code
 * is allowed or if optimizing for RTL simulation.
 */
#if defined(ALT_ALLOW_CODE_AT_RESET) || defined(ALT_SIM_OPTIMIZE)
    /* Jump to the _start entry point in the .text section. */
    movhi r1, %hi(_start)
   0:	00400034 	movhi	at,0
    ori r1, r1, %lo(_start)
   4:	08406f14 	ori	at,at,444
    jmp r1
   8:	0800683a 	jmp	at
	...

Disassembly of section .exceptions:

00000020 <alt_exception>:

#else /* ALT_EXCEPTION_STACK disabled */
        /* 
         * Reserve space on normal stack for registers about to be pushed.
         */
        addi  sp, sp, -76
  20:	deffed04 	addi	sp,sp,-76
         * documentation for details).
         *
         * Leave a gap in the stack frame at 4(sp) for the muldiv handler to
         * store zero into.
         */
        stw   ra,  0(sp)
  24:	dfc00015 	stw	ra,0(sp)
        stw   r1,   8(sp)
  28:	d8400215 	stw	at,8(sp)
        stw   r2,  12(sp)
  2c:	d8800315 	stw	r2,12(sp)
        stw   r3,  16(sp)
  30:	d8c00415 	stw	r3,16(sp)
        stw   r4,  20(sp)
  34:	d9000515 	stw	r4,20(sp)
        stw   r5,  24(sp)
  38:	d9400615 	stw	r5,24(sp)
        stw   r6,  28(sp)
  3c:	d9800715 	stw	r6,28(sp)
        stw   r7,  32(sp)
  40:	d9c00815 	stw	r7,32(sp)
        rdctl r5, estatus   /* Read early to avoid usage stall */
  44:	000b307a 	rdctl	r5,estatus
        stw   r8,  36(sp)
  48:	da000915 	stw	r8,36(sp)
        stw   r9,  40(sp)
  4c:	da400a15 	stw	r9,40(sp)
        stw   r10, 44(sp)
  50:	da800b15 	stw	r10,44(sp)
        stw   r11, 48(sp)
  54:	dac00c15 	stw	r11,48(sp)
        stw   r12, 52(sp)
  58:	db000d15 	stw	r12,52(sp)
        stw   r13, 56(sp)
  5c:	db400e15 	stw	r13,56(sp)
        stw   r14, 60(sp)
  60:	db800f15 	stw	r14,60(sp)
        stw   r15, 64(sp)
  64:	dbc01015 	stw	r15,64(sp)
        /*
         * ea-4 contains the address of the instruction being executed
         * when the exception occured. For interrupt exceptions, we will
         * will be re-issue the isntruction. Store it in 72(sp)
         */
        stw   r5,  68(sp)  /* estatus */
  68:	d9401115 	stw	r5,68(sp)
        addi  r15, ea, -4  /* instruction that caused exception */
  6c:	ebffff04 	addi	r15,ea,-4
        stw   r15,  72(sp)
  70:	dbc01215 	stw	r15,72(sp)
#else
        /*
         * Test to see if the exception was a software exception or caused 
         * by an external interrupt, and vector accordingly.
         */
        rdctl r4, ipending
  74:	0009313a 	rdctl	r4,ipending
        andi  r2, r5, 1
  78:	2880004c 	andi	r2,r5,1
        beq   r2, zero, .Lnot_irq
  7c:	10000326 	beq	r2,zero,8c <alt_exception+0x6c>
        beq   r4, zero, .Lnot_irq
  80:	20000226 	beq	r4,zero,8c <alt_exception+0x6c>
        /*
         * Now that all necessary registers have been preserved, call 
         * alt_irq_handler() to process the interrupts.
         */

        call alt_irq_handler
  84:	00000ec0 	call	ec <alt_irq_handler>

        .section .exceptions.irqreturn, "xa"

        br    .Lexception_exit
  88:	00000306 	br	98 <alt_exception_unknown+0x4>
         * upon completion, so we write ea (address of instruction *after*
         * the one where the exception occured) into 72(sp). The actual
         * instruction that caused the exception is written in r2, which these
         * handlers will utilize.
         */
        stw   ea,  72(sp)  /* Don't re-issue */
  8c:	df401215 	stw	ea,72(sp)
        ldw   r2, -4(ea)   /* Instruction that caused exception */
  90:	e8bfff17 	ldw	r2,-4(ea)

00000094 <alt_exception_unknown>:
#ifdef NIOS2_HAS_DEBUG_STUB
       /*
        *  Either tell the user now (if there is a debugger attached) or go into
        *  the debug monitor which will loop until a debugger is attached.
        */
        break
  94:	003da03a 	break	0
        /* 
         * Restore the saved registers, so that all general purpose registers 
         * have been restored to their state at the time the interrupt occured.
         */

        ldw   r5,  68(sp)
  98:	d9401117 	ldw	r5,68(sp)
        ldw   ea,  72(sp)  /* This becomes the PC once eret is executed */
  9c:	df401217 	ldw	ea,72(sp)
        ldw   ra,   0(sp)
  a0:	dfc00017 	ldw	ra,0(sp)

        wrctl estatus, r5
  a4:	2801707a 	wrctl	estatus,r5

        ldw   r1,   8(sp)
  a8:	d8400217 	ldw	at,8(sp)
        ldw   r2,  12(sp)
  ac:	d8800317 	ldw	r2,12(sp)
        ldw   r3,  16(sp)
  b0:	d8c00417 	ldw	r3,16(sp)
        ldw   r4,  20(sp)
  b4:	d9000517 	ldw	r4,20(sp)
        ldw   r5,  24(sp)
  b8:	d9400617 	ldw	r5,24(sp)
        ldw   r6,  28(sp)
  bc:	d9800717 	ldw	r6,28(sp)
        ldw   r7,  32(sp)
  c0:	d9c00817 	ldw	r7,32(sp)

#if defined(ALT_EXCEPTION_STACK) && defined(ALT_STACK_CHECK)
        ldw   et, %gprel(alt_exception_old_stack_limit)(gp)
#endif

        ldw   r8,  36(sp)
  c4:	da000917 	ldw	r8,36(sp)
        ldw   r9,  40(sp)
  c8:	da400a17 	ldw	r9,40(sp)
        ldw   r10, 44(sp)
  cc:	da800b17 	ldw	r10,44(sp)
        ldw   r11, 48(sp)
  d0:	dac00c17 	ldw	r11,48(sp)
        ldw   r12, 52(sp)
  d4:	db000d17 	ldw	r12,52(sp)
        ldw   r13, 56(sp)
  d8:	db400e17 	ldw	r13,56(sp)
        ldw   r14, 60(sp)
  dc:	db800f17 	ldw	r14,60(sp)
        ldw   r15, 64(sp)
  e0:	dbc01017 	ldw	r15,64(sp)
        stw   et, %gprel(alt_stack_limit_value)(gp)
        stw   zero, %gprel(alt_exception_old_stack_limit)(gp)
#endif /* ALT_STACK_CHECK */
        ldw   sp,  76(sp)
#else /* ALT_EXCEPTION_STACK disabled */
        addi  sp, sp, 76
  e4:	dec01304 	addi	sp,sp,76

        /*
         * Return to the interrupted instruction.
         */

        eret
  e8:	ef80083a 	eret

000000ec <alt_irq_handler>:
 * instruction is present if the macro ALT_CI_INTERRUPT_VECTOR defined.
 */

void alt_irq_handler (void) __attribute__ ((section (".exceptions")));
void alt_irq_handler (void)
{
  ec:	defff904 	addi	sp,sp,-28
  f0:	dfc00615 	stw	ra,24(sp)
  f4:	df000515 	stw	fp,20(sp)
  f8:	df000504 	addi	fp,sp,20
  
  /*
   * Notify the operating system that we are at interrupt level.
   */ 
  
  ALT_OS_INT_ENTER();
  fc:	0001883a 	nop
#ifndef NIOS2_EIC_PRESENT
static ALT_INLINE alt_u32 ALT_ALWAYS_INLINE alt_irq_pending (void)
{
  alt_u32 active;

  NIOS2_READ_IPENDING (active);
 100:	0005313a 	rdctl	r2,ipending
 104:	e0bffe15 	stw	r2,-8(fp)

  return active;
 108:	e0bffe17 	ldw	r2,-8(fp)
   * Consider the case where the high priority interupt is asserted during
   * the interrupt entry sequence for a lower priority interrupt to see why
   * this is the case.
   */

  active = alt_irq_pending ();
 10c:	e0bffb15 	stw	r2,-20(fp)

  do
  {
    i = 0;
 110:	e03ffd15 	stw	zero,-12(fp)
    mask = 1;
 114:	00800044 	movi	r2,1
 118:	e0bffc15 	stw	r2,-16(fp)
     * called to clear the interrupt condition.
     */

    do
    {
      if (active & mask)
 11c:	e0fffb17 	ldw	r3,-20(fp)
 120:	e0bffc17 	ldw	r2,-16(fp)
 124:	1884703a 	and	r2,r3,r2
 128:	10001826 	beq	r2,zero,18c <alt_irq_handler+0xa0>
      { 
#ifdef ALT_ENHANCED_INTERRUPT_API_PRESENT
        alt_irq[i].handler(alt_irq[i].context); 
#else
        alt_irq[i].handler(alt_irq[i].context, i); 
 12c:	00c00074 	movhi	r3,1
 130:	18c61a04 	addi	r3,r3,6248
 134:	e0bffd17 	ldw	r2,-12(fp)
 138:	100490fa 	slli	r2,r2,3
 13c:	1885883a 	add	r2,r3,r2
 140:	10c00017 	ldw	r3,0(r2)
 144:	01000074 	movhi	r4,1
 148:	21061a04 	addi	r4,r4,6248
 14c:	e0bffd17 	ldw	r2,-12(fp)
 150:	100490fa 	slli	r2,r2,3
 154:	2085883a 	add	r2,r4,r2
 158:	10800104 	addi	r2,r2,4
 15c:	10800017 	ldw	r2,0(r2)
 160:	1009883a 	mov	r4,r2
 164:	e17ffd17 	ldw	r5,-12(fp)
 168:	183ee83a 	callr	r3
#endif
        break;
 16c:	0001883a 	nop
#ifndef NIOS2_EIC_PRESENT
static ALT_INLINE alt_u32 ALT_ALWAYS_INLINE alt_irq_pending (void)
{
  alt_u32 active;

  NIOS2_READ_IPENDING (active);
 170:	0005313a 	rdctl	r2,ipending
 174:	e0bfff15 	stw	r2,-4(fp)

  return active;
 178:	e0bfff17 	ldw	r2,-4(fp)
      mask <<= 1;
      i++;

    } while (1);

    active = alt_irq_pending ();
 17c:	e0bffb15 	stw	r2,-20(fp)
    
  } while (active);
 180:	e0bffb17 	ldw	r2,-20(fp)
 184:	103fe21e 	bne	r2,zero,110 <alt_irq_handler+0x24>

  /*
   * Notify the operating system that interrupt processing is complete.
   */ 

  ALT_OS_INT_EXIT();
 188:	00000706 	br	1a8 <alt_irq_handler+0xbc>
#else
        alt_irq[i].handler(alt_irq[i].context, i); 
#endif
        break;
      }
      mask <<= 1;
 18c:	e0bffc17 	ldw	r2,-16(fp)
 190:	1085883a 	add	r2,r2,r2
 194:	e0bffc15 	stw	r2,-16(fp)
      i++;
 198:	e0bffd17 	ldw	r2,-12(fp)
 19c:	10800044 	addi	r2,r2,1
 1a0:	e0bffd15 	stw	r2,-12(fp)

    } while (1);
 1a4:	003fdd06 	br	11c <alt_irq_handler+0x30>
  /*
   * Notify the operating system that interrupt processing is complete.
   */ 

  ALT_OS_INT_EXIT();
}
 1a8:	e037883a 	mov	sp,fp
 1ac:	dfc00117 	ldw	ra,4(sp)
 1b0:	df000017 	ldw	fp,0(sp)
 1b4:	dec00204 	addi	sp,sp,8
 1b8:	f800283a 	ret

Disassembly of section .text:

000001bc <_start>:

    /*
     * Now that the caches are initialized, set up the stack pointer and global pointer.
     * The values provided by the linker are assumed to be correctly aligned.
     */
    movhi sp, %hi(__alt_stack_pointer)
     1bc:	06c02034 	movhi	sp,128
    ori sp, sp, %lo(__alt_stack_pointer)
     1c0:	dec00014 	ori	sp,sp,0
    movhi gp, %hi(_gp)
     1c4:	06800074 	movhi	gp,1
    ori gp, gp, %lo(_gp)
     1c8:	d69eb314 	ori	gp,gp,31436
 */
#ifndef ALT_SIM_OPTIMIZE
    /* Log that the BSS is about to be cleared. */
    ALT_LOG_PUTS(alt_log_msg_bss)

    movhi r2, %hi(__bss_start)
     1cc:	00800074 	movhi	r2,1
    ori r2, r2, %lo(__bss_start)
     1d0:	1085ff14 	ori	r2,r2,6140

    movhi r3, %hi(__bss_end)
     1d4:	00c00074 	movhi	r3,1
    ori r3, r3, %lo(__bss_end)
     1d8:	18c6be14 	ori	r3,r3,6904

    beq r2, r3, 1f
     1dc:	10c00326 	beq	r2,r3,1ec <_start+0x30>

0:
    stw zero, (r2)
     1e0:	10000015 	stw	zero,0(r2)
    addi r2, r2, 4
     1e4:	10800104 	addi	r2,r2,4
    bltu r2, r3, 0b
     1e8:	10fffd36 	bltu	r2,r3,1e0 <_start+0x24>
     * section aren't defined until alt_load() has been called).
     */
    mov   et, zero
#endif

    call alt_load
     1ec:	000b2500 	call	b250 <alt_load>

    /* Log that alt_main is about to be called. */
    ALT_LOG_PUTS(alt_log_msg_alt_main)

    /* Call the C entry point. It should never return. */
    call alt_main
     1f0:	000b3f40 	call	b3f4 <alt_main>

000001f4 <alt_after_alt_main>:

    /* Wait in infinite loop in case alt_main does return. */
alt_after_alt_main:
    br alt_after_alt_main
     1f4:	003fff06 	br	1f4 <alt_after_alt_main>

000001f8 <DELAY_CYCLES>:
	 * FUNCTION: DELAY_CYCLES(unsigned long x)
	 * > Return Logic Boolean, when delay is done, will return TRUE
	 * DESP:
	 * 	unsigned long x: number of clock cycle delay
	 ****************************************************************************************************************/
	  extern bool DELAY_CYCLES(unsigned long x){
     1f8:	defffd04 	addi	sp,sp,-12
     1fc:	df000215 	stw	fp,8(sp)
     200:	df000204 	addi	fp,sp,8
     204:	e13fff15 	stw	r4,-4(fp)
		  unsigned long delay_i;
		  for(delay_i = 0; delay_i <= x; ++delay_i){};
     208:	e03ffe15 	stw	zero,-8(fp)
     20c:	00000306 	br	21c <DELAY_CYCLES+0x24>
     210:	e0bffe17 	ldw	r2,-8(fp)
     214:	10800044 	addi	r2,r2,1
     218:	e0bffe15 	stw	r2,-8(fp)
     21c:	e0bffe17 	ldw	r2,-8(fp)
     220:	e0ffff17 	ldw	r3,-4(fp)
     224:	18bffa2e 	bgeu	r3,r2,210 <DELAY_CYCLES+0x18>
		  return TRUE;
     228:	00800044 	movi	r2,1
	  }
     22c:	e037883a 	mov	sp,fp
     230:	df000017 	ldw	fp,0(sp)
     234:	dec00104 	addi	sp,sp,4
     238:	f800283a 	ret

0000023c <INT_7SEG>:
	 * FUNCTION: INT_7SEG(char x)
	 * > Return integer value that translated into 7segment binary
	 * DESP:
	 * char x: value to display on 7segment 0<->F
	 ****************************************************************************************************************/
	  long INT_7SEG(char x){
     23c:	defffd04 	addi	sp,sp,-12
     240:	df000215 	stw	fp,8(sp)
     244:	df000204 	addi	fp,sp,8
     248:	2005883a 	mov	r2,r4
     24c:	e0bfff05 	stb	r2,-4(fp)
		  long seg;
			switch (x){
     250:	e0bfff07 	ldb	r2,-4(fp)
     254:	10bff404 	addi	r2,r2,-48
     258:	10c005e8 	cmpgeui	r3,r2,23
     25c:	18004e1e 	bne	r3,zero,398 <INT_7SEG+0x15c>
     260:	1085883a 	add	r2,r2,r2
     264:	1087883a 	add	r3,r2,r2
     268:	00800034 	movhi	r2,0
     26c:	10809f04 	addi	r2,r2,636
     270:	1885883a 	add	r2,r3,r2
     274:	10800017 	ldw	r2,0(r2)
     278:	1000683a 	jmp	r2
     27c:	000002d8 	cmpnei	zero,zero,11
     280:	000002e4 	muli	zero,zero,11
     284:	000002f0 	cmpltui	zero,zero,11
     288:	000002fc 	xorhi	zero,zero,11
     28c:	00000308 	cmpgei	zero,zero,12
     290:	00000314 	movui	zero,12
     294:	00000320 	cmpeqi	zero,zero,12
     298:	0000032c 	andhi	zero,zero,12
     29c:	00000338 	rdprs	zero,zero,12
     2a0:	00000344 	movi	zero,13
     2a4:	00000398 	cmpnei	zero,zero,14
     2a8:	00000398 	cmpnei	zero,zero,14
     2ac:	00000398 	cmpnei	zero,zero,14
     2b0:	00000398 	cmpnei	zero,zero,14
     2b4:	00000398 	cmpnei	zero,zero,14
     2b8:	00000398 	cmpnei	zero,zero,14
     2bc:	00000398 	cmpnei	zero,zero,14
     2c0:	00000350 	cmplti	zero,zero,13
     2c4:	0000035c 	xori	zero,zero,13
     2c8:	00000368 	cmpgeui	zero,zero,13
     2cc:	00000374 	movhi	zero,13
     2d0:	00000380 	call	38 <__flash_exceptions_start+0x18>
     2d4:	0000038c 	andi	zero,zero,14
			case '0': seg = 0x3F; break;
     2d8:	00800fc4 	movi	r2,63
     2dc:	e0bffe15 	stw	r2,-8(fp)
     2e0:	00002f06 	br	3a0 <INT_7SEG+0x164>
			case '1': seg = 0x06; break;
     2e4:	00800184 	movi	r2,6
     2e8:	e0bffe15 	stw	r2,-8(fp)
     2ec:	00002c06 	br	3a0 <INT_7SEG+0x164>
			case '2': seg = 0x5B; break;
     2f0:	008016c4 	movi	r2,91
     2f4:	e0bffe15 	stw	r2,-8(fp)
     2f8:	00002906 	br	3a0 <INT_7SEG+0x164>
			case '3': seg = 0x4F; break;
     2fc:	008013c4 	movi	r2,79
     300:	e0bffe15 	stw	r2,-8(fp)
     304:	00002606 	br	3a0 <INT_7SEG+0x164>
			case '4': seg = 0x66; break;
     308:	00801984 	movi	r2,102
     30c:	e0bffe15 	stw	r2,-8(fp)
     310:	00002306 	br	3a0 <INT_7SEG+0x164>
			case '5': seg = 0x6D; break;
     314:	00801b44 	movi	r2,109
     318:	e0bffe15 	stw	r2,-8(fp)
     31c:	00002006 	br	3a0 <INT_7SEG+0x164>
			case '6': seg = 0x7D; break;
     320:	00801f44 	movi	r2,125
     324:	e0bffe15 	stw	r2,-8(fp)
     328:	00001d06 	br	3a0 <INT_7SEG+0x164>
			case '7': seg = 0x07; break;
     32c:	008001c4 	movi	r2,7
     330:	e0bffe15 	stw	r2,-8(fp)
     334:	00001a06 	br	3a0 <INT_7SEG+0x164>
			case '8': seg = 0x7F; break;
     338:	00801fc4 	movi	r2,127
     33c:	e0bffe15 	stw	r2,-8(fp)
     340:	00001706 	br	3a0 <INT_7SEG+0x164>
			case '9': seg = 0x6F; break;
     344:	00801bc4 	movi	r2,111
     348:	e0bffe15 	stw	r2,-8(fp)
     34c:	00001406 	br	3a0 <INT_7SEG+0x164>
			case 'A': seg = 0x77; break;
     350:	00801dc4 	movi	r2,119
     354:	e0bffe15 	stw	r2,-8(fp)
     358:	00001106 	br	3a0 <INT_7SEG+0x164>
			case 'B': seg = 0x7C; break;
     35c:	00801f04 	movi	r2,124
     360:	e0bffe15 	stw	r2,-8(fp)
     364:	00000e06 	br	3a0 <INT_7SEG+0x164>
			case 'C': seg = 0x39; break;
     368:	00800e44 	movi	r2,57
     36c:	e0bffe15 	stw	r2,-8(fp)
     370:	00000b06 	br	3a0 <INT_7SEG+0x164>
			case 'D': seg = 0x5E; break;
     374:	00801784 	movi	r2,94
     378:	e0bffe15 	stw	r2,-8(fp)
     37c:	00000806 	br	3a0 <INT_7SEG+0x164>
			case 'E': seg = 0x79; break;
     380:	00801e44 	movi	r2,121
     384:	e0bffe15 	stw	r2,-8(fp)
     388:	00000506 	br	3a0 <INT_7SEG+0x164>
			case 'F': seg = 0x71; break;
     38c:	00801c44 	movi	r2,113
     390:	e0bffe15 	stw	r2,-8(fp)
     394:	00000206 	br	3a0 <INT_7SEG+0x164>
			default:
				seg = 0x00; break;
     398:	e03ffe15 	stw	zero,-8(fp)
     39c:	0001883a 	nop
			}
			return seg;
     3a0:	e0bffe17 	ldw	r2,-8(fp)
		}
     3a4:	e037883a 	mov	sp,fp
     3a8:	df000017 	ldw	fp,0(sp)
     3ac:	dec00104 	addi	sp,sp,4
     3b0:	f800283a 	ret

000003b4 <SEG_OUT>:
	 * int x				: value to ouput as on four 7segments
	 * unsigned int base	: 	#define DEC 0x10    ;    #define HEX 0x11
	 * bool state			: Switch On/Off 7segments
	 ****************************************************************************************************************/

	  int SEG_OUT(int x, unsigned int base, bool state){
     3b4:	defff304 	addi	sp,sp,-52
     3b8:	dfc00c15 	stw	ra,48(sp)
     3bc:	df000b15 	stw	fp,44(sp)
     3c0:	df000b04 	addi	fp,sp,44
     3c4:	e13ffd15 	stw	r4,-12(fp)
     3c8:	e17ffe15 	stw	r5,-8(fp)
     3cc:	e1bfff15 	stw	r6,-4(fp)
	  	char data[4];
	  	if(state){
     3d0:	e0bfff17 	ldw	r2,-4(fp)
     3d4:	10001426 	beq	r2,zero,428 <SEG_OUT+0x74>
	  		if(base == 0x10)
     3d8:	e0bffe17 	ldw	r2,-8(fp)
     3dc:	10800418 	cmpnei	r2,r2,16
     3e0:	1000071e 	bne	r2,zero,400 <SEG_OUT+0x4c>
	  			sprintf((char *)data, "%04d",x); // as DEC
     3e4:	e0bff804 	addi	r2,fp,-32
     3e8:	1009883a 	mov	r4,r2
     3ec:	01400074 	movhi	r5,1
     3f0:	29766604 	addi	r5,r5,-9832
     3f4:	e1bffd17 	ldw	r6,-12(fp)
     3f8:	000153c0 	call	153c <sprintf>
     3fc:	00001006 	br	440 <SEG_OUT+0x8c>
	  		else if(base == 0x11 )
     400:	e0bffe17 	ldw	r2,-8(fp)
     404:	10800458 	cmpnei	r2,r2,17
     408:	10000d1e 	bne	r2,zero,440 <SEG_OUT+0x8c>
	  			sprintf((char *)data, "%04X",x); // as HEX
     40c:	e0bff804 	addi	r2,fp,-32
     410:	1009883a 	mov	r4,r2
     414:	01400074 	movhi	r5,1
     418:	29766804 	addi	r5,r5,-9824
     41c:	e1bffd17 	ldw	r6,-12(fp)
     420:	000153c0 	call	153c <sprintf>
     424:	00000606 	br	440 <SEG_OUT+0x8c>
	  		else{};
	  		}
	  	else{
	  		sprintf((char *)data, "%c",'G'); // as HEX SWITCH OFF
     428:	e0bff804 	addi	r2,fp,-32
     42c:	1009883a 	mov	r4,r2
     430:	01400074 	movhi	r5,1
     434:	29766a04 	addi	r5,r5,-9816
     438:	018011c4 	movi	r6,71
     43c:	000153c0 	call	153c <sprintf>
	  	}

	  	long HEX_DATA[4];
	  	int i,j;
	  	long sum = 0x00000000;
     440:	e03ff615 	stw	zero,-40(fp)

	  	for(i = 3; i >=0 ; --i){
     444:	008000c4 	movi	r2,3
     448:	e0bff515 	stw	r2,-44(fp)
     44c:	00001806 	br	4b0 <SEG_OUT+0xfc>
	  		j = 3-i;
     450:	00c000c4 	movi	r3,3
     454:	e0bff517 	ldw	r2,-44(fp)
     458:	1885c83a 	sub	r2,r3,r2
     45c:	e0bff715 	stw	r2,-36(fp)
	  		HEX_DATA[i] = INT_7SEG(data[j]);
     460:	e0fff804 	addi	r3,fp,-32
     464:	e0bff717 	ldw	r2,-36(fp)
     468:	1885883a 	add	r2,r3,r2
     46c:	10800003 	ldbu	r2,0(r2)
     470:	10803fcc 	andi	r2,r2,255
     474:	1080201c 	xori	r2,r2,128
     478:	10bfe004 	addi	r2,r2,-128
     47c:	1009883a 	mov	r4,r2
     480:	000023c0 	call	23c <INT_7SEG>
     484:	1007883a 	mov	r3,r2
     488:	e0bff517 	ldw	r2,-44(fp)
     48c:	1085883a 	add	r2,r2,r2
     490:	1085883a 	add	r2,r2,r2
     494:	e13ff504 	addi	r4,fp,-44
     498:	2085883a 	add	r2,r4,r2
     49c:	10800404 	addi	r2,r2,16
     4a0:	10c00015 	stw	r3,0(r2)

	  	long HEX_DATA[4];
	  	int i,j;
	  	long sum = 0x00000000;

	  	for(i = 3; i >=0 ; --i){
     4a4:	e0bff517 	ldw	r2,-44(fp)
     4a8:	10bfffc4 	addi	r2,r2,-1
     4ac:	e0bff515 	stw	r2,-44(fp)
     4b0:	e0bff517 	ldw	r2,-44(fp)
     4b4:	103fe60e 	bge	r2,zero,450 <SEG_OUT+0x9c>
	  		j = 3-i;
	  		HEX_DATA[i] = INT_7SEG(data[j]);
	  	}
	  	sum = (HEX_DATA[3]  <<24) + (HEX_DATA[2]  <<16) + (HEX_DATA[1] <<8) + HEX_DATA[0];
     4b8:	e0bffc17 	ldw	r2,-16(fp)
     4bc:	1006963a 	slli	r3,r2,24
     4c0:	e0bffb17 	ldw	r2,-20(fp)
     4c4:	1004943a 	slli	r2,r2,16
     4c8:	1887883a 	add	r3,r3,r2
     4cc:	e0bffa17 	ldw	r2,-24(fp)
     4d0:	1004923a 	slli	r2,r2,8
     4d4:	1887883a 	add	r3,r3,r2
     4d8:	e0bff917 	ldw	r2,-28(fp)
     4dc:	1885883a 	add	r2,r3,r2
     4e0:	e0bff615 	stw	r2,-40(fp)
	  	*(HEX3_HEX0_ptr) = sum;
     4e4:	00840034 	movhi	r2,4096
     4e8:	10800804 	addi	r2,r2,32
     4ec:	e0fff617 	ldw	r3,-40(fp)
     4f0:	10c00015 	stw	r3,0(r2)
	  	return sum;
     4f4:	e0bff617 	ldw	r2,-40(fp)
	  }
     4f8:	e037883a 	mov	sp,fp
     4fc:	dfc00117 	ldw	ra,4(sp)
     500:	df000017 	ldw	fp,0(sp)
     504:	dec00204 	addi	sp,sp,8
     508:	f800283a 	ret

0000050c <digitalWrite_GPIO>:
	 * > Must set pinMode_GPIO(PIN, OUTPUT) as OUTPUT
	 * DESP:
	 * 	unsigned char PIN		: control which LED on the DE0 board, i.e. x = LEDG1; LEDG1 on the board will be selected
	 * 	bool state				: Either Switch HIGH/LOW on the specified LED
	 ****************************************************************************************************************/
	  extern bool digitalWrite_GPIO(unsigned char PIN, bool state, unsigned char OFFSET){
     50c:	defffb04 	addi	sp,sp,-20
     510:	df000415 	stw	fp,16(sp)
     514:	df000404 	addi	fp,sp,16
     518:	2007883a 	mov	r3,r4
     51c:	e17ffe15 	stw	r5,-8(fp)
     520:	3005883a 	mov	r2,r6
     524:	e0fffd05 	stb	r3,-12(fp)
     528:	e0bfff05 	stb	r2,-4(fp)

		unsigned char temp_J2 		 = *(ADDR_JP2PORT + OFFSET)          ; //Address PTR
     52c:	e0ffff03 	ldbu	r3,-4(fp)
     530:	00840034 	movhi	r2,4096
     534:	10801c04 	addi	r2,r2,112
     538:	1885883a 	add	r2,r3,r2
     53c:	10800003 	ldbu	r2,0(r2)
     540:	e0bffc05 	stb	r2,-16(fp)
		*(ADDR_JP2PORT + OFFSET + 4) = *(ADDR_JP2PORT + OFFSET + 4) | PIN; //SET PIN BIT AS OUTPUT
     544:	e0bfff03 	ldbu	r2,-4(fp)
     548:	10c00104 	addi	r3,r2,4
     54c:	00840034 	movhi	r2,4096
     550:	10801c04 	addi	r2,r2,112
     554:	1885883a 	add	r2,r3,r2
     558:	e0ffff03 	ldbu	r3,-4(fp)
     55c:	19000104 	addi	r4,r3,4
     560:	00c40034 	movhi	r3,4096
     564:	18c01c04 	addi	r3,r3,112
     568:	20c7883a 	add	r3,r4,r3
     56c:	19000003 	ldbu	r4,0(r3)
     570:	e0fffd03 	ldbu	r3,-12(fp)
     574:	20c6b03a 	or	r3,r4,r3
     578:	10c00005 	stb	r3,0(r2)

	  	if(state)	*(ADDR_JP2PORT + OFFSET) = temp_J2 |  PIN;
     57c:	e0bffe17 	ldw	r2,-8(fp)
     580:	10000926 	beq	r2,zero,5a8 <digitalWrite_GPIO+0x9c>
     584:	e0ffff03 	ldbu	r3,-4(fp)
     588:	00840034 	movhi	r2,4096
     58c:	10801c04 	addi	r2,r2,112
     590:	1885883a 	add	r2,r3,r2
     594:	e13ffc03 	ldbu	r4,-16(fp)
     598:	e0fffd03 	ldbu	r3,-12(fp)
     59c:	20c6b03a 	or	r3,r4,r3
     5a0:	10c00005 	stb	r3,0(r2)
     5a4:	00000a06 	br	5d0 <digitalWrite_GPIO+0xc4>
	  	else	    *(ADDR_JP2PORT + OFFSET) = temp_J2 &~ PIN;
     5a8:	e0ffff03 	ldbu	r3,-4(fp)
     5ac:	00840034 	movhi	r2,4096
     5b0:	10801c04 	addi	r2,r2,112
     5b4:	1885883a 	add	r2,r3,r2
     5b8:	e0fffd03 	ldbu	r3,-12(fp)
     5bc:	00c6303a 	nor	r3,zero,r3
     5c0:	1809883a 	mov	r4,r3
     5c4:	e0fffc03 	ldbu	r3,-16(fp)
     5c8:	20c6703a 	and	r3,r4,r3
     5cc:	10c00005 	stb	r3,0(r2)
	  	return TRUE;
     5d0:	00800044 	movi	r2,1
	  }
     5d4:	e037883a 	mov	sp,fp
     5d8:	df000017 	ldw	fp,0(sp)
     5dc:	dec00104 	addi	sp,sp,4
     5e0:	f800283a 	ret

000005e4 <digitalRead_GPIO>:
	 * > Return Logic Boolean [TRUE/FALSE]
	 * > Must set pinMode_GPIO(PIN, OUTPUT) as INPUT
	 * DESP:
	 * 	unsigned char PIN		: control which LED on the DE0 board, i.e. x = LEDG1; LEDG1 on the board will be selected
	 ****************************************************************************************************************/
	  extern bool digitalRead_GPIO(unsigned char PIN, unsigned char OFFSET){
     5e4:	defffc04 	addi	sp,sp,-16
     5e8:	df000315 	stw	fp,12(sp)
     5ec:	df000304 	addi	fp,sp,12
     5f0:	2007883a 	mov	r3,r4
     5f4:	2805883a 	mov	r2,r5
     5f8:	e0fffe05 	stb	r3,-8(fp)
     5fc:	e0bfff05 	stb	r2,-4(fp)
		*(ADDR_JP2PORT + OFFSET + 4) = *(ADDR_JP2PORT + OFFSET + 4) &~ PIN; //SET PIN BIT AS INPUT
     600:	e0bfff03 	ldbu	r2,-4(fp)
     604:	10c00104 	addi	r3,r2,4
     608:	00840034 	movhi	r2,4096
     60c:	10801c04 	addi	r2,r2,112
     610:	1885883a 	add	r2,r3,r2
     614:	e0ffff03 	ldbu	r3,-4(fp)
     618:	19000104 	addi	r4,r3,4
     61c:	00c40034 	movhi	r3,4096
     620:	18c01c04 	addi	r3,r3,112
     624:	20c7883a 	add	r3,r4,r3
     628:	19000003 	ldbu	r4,0(r3)
     62c:	e0fffe03 	ldbu	r3,-8(fp)
     630:	00c6303a 	nor	r3,zero,r3
     634:	20c6703a 	and	r3,r4,r3
     638:	10c00005 	stb	r3,0(r2)
	    unsigned char temp_J2        = *(ADDR_JP2PORT + OFFSET)   ; //Address PTR
     63c:	e0ffff03 	ldbu	r3,-4(fp)
     640:	00840034 	movhi	r2,4096
     644:	10801c04 	addi	r2,r2,112
     648:	1885883a 	add	r2,r3,r2
     64c:	10800003 	ldbu	r2,0(r2)
     650:	e0bffd05 	stb	r2,-12(fp)


		if((temp_J2 & PIN) == PIN) //if 11000110,ADDR_JR2PORT & 00000100,PIN = 00000100 == PIN
     654:	e0fffd03 	ldbu	r3,-12(fp)
     658:	e0bffe03 	ldbu	r2,-8(fp)
     65c:	1884703a 	and	r2,r3,r2
     660:	10c03fcc 	andi	r3,r2,255
     664:	e0bffe03 	ldbu	r2,-8(fp)
     668:	1880021e 	bne	r3,r2,674 <digitalRead_GPIO+0x90>
			return HIGH;
     66c:	00800044 	movi	r2,1
     670:	00000106 	br	678 <digitalRead_GPIO+0x94>
		else
			return LOW;
     674:	0005883a 	mov	r2,zero
	  }
     678:	e037883a 	mov	sp,fp
     67c:	df000017 	ldw	fp,0(sp)
     680:	dec00104 	addi	sp,sp,4
     684:	f800283a 	ret

00000688 <INIT_GPIO>:
	 * FUNCTION: INIT_GPIO()
	 * > Return Logic Boolean [TRUE/FALSE]
	 * DESP:
	 * initialized GPIO on J5 IDE Port
	 ****************************************************************************************************************/
	  extern bool INIT_GPIO(){
     688:	defffd04 	addi	sp,sp,-12
     68c:	dfc00215 	stw	ra,8(sp)
     690:	df000115 	stw	fp,4(sp)
     694:	df000104 	addi	fp,sp,4
		  //*MSP430_TR_SE = 0;
		  //*SERVO_PIN  = 0;
	  	   // INIT GPIO directions
		  *ADDR_JP2PORT = 0;
     698:	00840034 	movhi	r2,4096
     69c:	10801c04 	addi	r2,r2,112
     6a0:	10000005 	stb	zero,0(r2)
		  *(ADDR_JP2PORT+4) = 0;
     6a4:	00840034 	movhi	r2,4096
     6a8:	10801d04 	addi	r2,r2,116
     6ac:	10000005 	stb	zero,0(r2)
		  DC_MOT(0x0,0x4,0x0); //STOP DC MOTOR
     6b0:	0009883a 	mov	r4,zero
     6b4:	01400104 	movi	r5,4
     6b8:	000d883a 	mov	r6,zero
     6bc:	0000ec80 	call	ec8 <DC_MOT>
		  SERVO(0, 0);
     6c0:	0009883a 	mov	r4,zero
     6c4:	000b883a 	mov	r5,zero
     6c8:	0000e700 	call	e70 <SERVO>
		  DELAY_CYCLES(1000);
     6cc:	0100fa04 	movi	r4,1000
     6d0:	00001f80 	call	1f8 <DELAY_CYCLES>
		  SERVO(1, 0);
     6d4:	01000044 	movi	r4,1
     6d8:	000b883a 	mov	r5,zero
     6dc:	0000e700 	call	e70 <SERVO>
		  DELAY_CYCLES(1000);
     6e0:	0100fa04 	movi	r4,1000
     6e4:	00001f80 	call	1f8 <DELAY_CYCLES>
		  unsigned char i = 0;
     6e8:	e03fff05 	stb	zero,-4(fp)
	  		  while (i<4)
     6ec:	00000a06 	br	718 <INIT_GPIO+0x90>
	  		  {
	  			 *(ADDR_JP2PORT + i + 4) = 0xFF; //set every bit direction to output
     6f0:	e0bfff03 	ldbu	r2,-4(fp)
     6f4:	10c00104 	addi	r3,r2,4
     6f8:	00840034 	movhi	r2,4096
     6fc:	10801c04 	addi	r2,r2,112
     700:	1885883a 	add	r2,r3,r2
     704:	00ffffc4 	movi	r3,-1
     708:	10c00005 	stb	r3,0(r2)
	  		     i++;
     70c:	e0bfff03 	ldbu	r2,-4(fp)
     710:	10800044 	addi	r2,r2,1
     714:	e0bfff05 	stb	r2,-4(fp)
		  SERVO(0, 0);
		  DELAY_CYCLES(1000);
		  SERVO(1, 0);
		  DELAY_CYCLES(1000);
		  unsigned char i = 0;
	  		  while (i<4)
     718:	e0bfff03 	ldbu	r2,-4(fp)
     71c:	10800130 	cmpltui	r2,r2,4
     720:	103ff31e 	bne	r2,zero,6f0 <INIT_GPIO+0x68>
	  		  {
	  			 *(ADDR_JP2PORT + i + 4) = 0xFF; //set every bit direction to output
	  		     i++;
	  		  }
				i = 0;
     724:	e03fff05 	stb	zero,-4(fp)
	  		    *(ADDR_JP2PORT)   = 0X00;
     728:	00840034 	movhi	r2,4096
     72c:	10801c04 	addi	r2,r2,112
     730:	10000005 	stb	zero,0(r2)
	  			*(ADDR_JP2PORT+1) = 0X00;
     734:	00840034 	movhi	r2,4096
     738:	10801c44 	addi	r2,r2,113
     73c:	10000005 	stb	zero,0(r2)
	  			*(ADDR_JP2PORT+2) = 0X00;
     740:	00840034 	movhi	r2,4096
     744:	10801c84 	addi	r2,r2,114
     748:	10000005 	stb	zero,0(r2)
	  			*(ADDR_JP2PORT+3) = 0X00;
     74c:	00840034 	movhi	r2,4096
     750:	10801cc4 	addi	r2,r2,115
     754:	10000005 	stb	zero,0(r2)
	  	  digitalWrite_GPIO(PR_SN,LOW,0);
     758:	01000104 	movi	r4,4
     75c:	000b883a 	mov	r5,zero
     760:	000d883a 	mov	r6,zero
     764:	000050c0 	call	50c <digitalWrite_GPIO>
	  		    return TRUE;
     768:	00800044 	movi	r2,1
	  		 }
     76c:	e037883a 	mov	sp,fp
     770:	dfc00117 	ldw	ra,4(sp)
     774:	df000017 	ldw	fp,0(sp)
     778:	dec00204 	addi	sp,sp,8
     77c:	f800283a 	ret

00000780 <RESET>:

/*********************************************************************************************************************
* 																							  Machines Functions
* -> Last Update 11/10/2014 11:18PM [Alex Lim]
*********************************************************************************************************************/
  extern bool RESET(unsigned char STATE){
     780:	defffd04 	addi	sp,sp,-12
     784:	dfc00215 	stw	ra,8(sp)
     788:	df000115 	stw	fp,4(sp)
     78c:	df000104 	addi	fp,sp,4
     790:	2005883a 	mov	r2,r4
     794:	e0bfff05 	stb	r2,-4(fp)

	  //SERVO 0 = TRACK
	  //SERVO 1 = TRUCK

	  while(*MSP430_TR_SE == 1);
     798:	0001883a 	nop
     79c:	00802034 	movhi	r2,128
     7a0:	10800c04 	addi	r2,r2,48
     7a4:	10800003 	ldbu	r2,0(r2)
     7a8:	10803fcc 	andi	r2,r2,255
     7ac:	10800060 	cmpeqi	r2,r2,1
     7b0:	103ffa1e 	bne	r2,zero,79c <RESET+0x1c>
	  SERVO(0, 0X1F);
     7b4:	0009883a 	mov	r4,zero
     7b8:	014007c4 	movi	r5,31
     7bc:	0000e700 	call	e70 <SERVO>
	  DC_MOT(0x0,0x4,FALSE); //STOP SERVO
     7c0:	0009883a 	mov	r4,zero
     7c4:	01400104 	movi	r5,4
     7c8:	000d883a 	mov	r6,zero
     7cc:	0000ec80 	call	ec8 <DC_MOT>
	  //STEPPER(0x0, 0x2, TRUE); RESET LIFT
	  digitalWrite_GPIO(LED_G,LOW,0);			    //LED GREEN
     7d0:	01000804 	movi	r4,32
     7d4:	000b883a 	mov	r5,zero
     7d8:	000d883a 	mov	r6,zero
     7dc:	000050c0 	call	50c <digitalWrite_GPIO>
	  digitalWrite_GPIO(LED_R,HIGH,0);			//LED RED
     7e0:	01002004 	movi	r4,128
     7e4:	01400044 	movi	r5,1
     7e8:	000d883a 	mov	r6,zero
     7ec:	000050c0 	call	50c <digitalWrite_GPIO>
	  DELAY_CYCLES(100000);
     7f0:	010000b4 	movhi	r4,2
     7f4:	2121a804 	addi	r4,r4,-31072
     7f8:	00001f80 	call	1f8 <DELAY_CYCLES>
	  return TRUE;}
     7fc:	00800044 	movi	r2,1
     800:	e037883a 	mov	sp,fp
     804:	dfc00117 	ldw	ra,4(sp)
     808:	df000017 	ldw	fp,0(sp)
     80c:	dec00204 	addi	sp,sp,8
     810:	f800283a 	ret

00000814 <READY>:

  extern bool READY(unsigned char STATE){
     814:	defffd04 	addi	sp,sp,-12
     818:	dfc00215 	stw	ra,8(sp)
     81c:	df000115 	stw	fp,4(sp)
     820:	df000104 	addi	fp,sp,4
     824:	2005883a 	mov	r2,r4
     828:	e0bfff05 	stb	r2,-4(fp)
	  DELAY_CYCLES(100000);
     82c:	010000b4 	movhi	r4,2
     830:	2121a804 	addi	r4,r4,-31072
     834:	00001f80 	call	1f8 <DELAY_CYCLES>
	  SERVO(0, 0X1F);
     838:	0009883a 	mov	r4,zero
     83c:	014007c4 	movi	r5,31
     840:	0000e700 	call	e70 <SERVO>
	  return TRUE;}
     844:	00800044 	movi	r2,1
     848:	e037883a 	mov	sp,fp
     84c:	dfc00117 	ldw	ra,4(sp)
     850:	df000017 	ldw	fp,0(sp)
     854:	dec00204 	addi	sp,sp,8
     858:	f800283a 	ret

0000085c <MACHINE>:




  extern bool MACHINE(unsigned char STATE){
     85c:	defffd04 	addi	sp,sp,-12
     860:	dfc00215 	stw	ra,8(sp)
     864:	df000115 	stw	fp,4(sp)
     868:	df000104 	addi	fp,sp,4
     86c:	2005883a 	mov	r2,r4
     870:	e0bfff05 	stb	r2,-4(fp)
	  SEG_OUT(STATE,DEC,TRUE)			;
     874:	e0bfff03 	ldbu	r2,-4(fp)
     878:	1009883a 	mov	r4,r2
     87c:	01400404 	movi	r5,16
     880:	01800044 	movi	r6,1
     884:	00003b40 	call	3b4 <SEG_OUT>

	  if(STATE ==1)	{STATE_1(STATE);	}
     888:	e0bfff03 	ldbu	r2,-4(fp)
     88c:	10800058 	cmpnei	r2,r2,1
     890:	1000041e 	bne	r2,zero,8a4 <MACHINE+0x48>
     894:	e0bfff03 	ldbu	r2,-4(fp)
     898:	1009883a 	mov	r4,r2
     89c:	000096c0 	call	96c <STATE_1>
     8a0:	00002c06 	br	954 <MACHINE+0xf8>
	  else if(STATE ==2)	{STATE_2(STATE);	}
     8a4:	e0bfff03 	ldbu	r2,-4(fp)
     8a8:	10800098 	cmpnei	r2,r2,2
     8ac:	1000041e 	bne	r2,zero,8c0 <MACHINE+0x64>
     8b0:	e0bfff03 	ldbu	r2,-4(fp)
     8b4:	1009883a 	mov	r4,r2
     8b8:	0000a4c0 	call	a4c <STATE_2>
     8bc:	00002506 	br	954 <MACHINE+0xf8>
	  else if(STATE ==3)	{STATE_3(STATE);	}
     8c0:	e0bfff03 	ldbu	r2,-4(fp)
     8c4:	108000d8 	cmpnei	r2,r2,3
     8c8:	1000041e 	bne	r2,zero,8dc <MACHINE+0x80>
     8cc:	e0bfff03 	ldbu	r2,-4(fp)
     8d0:	1009883a 	mov	r4,r2
     8d4:	0000afc0 	call	afc <STATE_3>
     8d8:	00001e06 	br	954 <MACHINE+0xf8>
	  else if(STATE ==4)	{STATE_4(STATE);	}
     8dc:	e0bfff03 	ldbu	r2,-4(fp)
     8e0:	10800118 	cmpnei	r2,r2,4
     8e4:	1000041e 	bne	r2,zero,8f8 <MACHINE+0x9c>
     8e8:	e0bfff03 	ldbu	r2,-4(fp)
     8ec:	1009883a 	mov	r4,r2
     8f0:	0000c680 	call	c68 <STATE_4>
     8f4:	00001706 	br	954 <MACHINE+0xf8>
	  else if(STATE ==5)	{STATE_5(STATE);	}
     8f8:	e0bfff03 	ldbu	r2,-4(fp)
     8fc:	10800158 	cmpnei	r2,r2,5
     900:	1000041e 	bne	r2,zero,914 <MACHINE+0xb8>
     904:	e0bfff03 	ldbu	r2,-4(fp)
     908:	1009883a 	mov	r4,r2
     90c:	0000cd80 	call	cd8 <STATE_5>
     910:	00001006 	br	954 <MACHINE+0xf8>
	  else if(STATE ==6)	{STATE_6(STATE);	}
     914:	e0bfff03 	ldbu	r2,-4(fp)
     918:	10800198 	cmpnei	r2,r2,6
     91c:	1000041e 	bne	r2,zero,930 <MACHINE+0xd4>
     920:	e0bfff03 	ldbu	r2,-4(fp)
     924:	1009883a 	mov	r4,r2
     928:	0000d540 	call	d54 <STATE_6>
     92c:	00000906 	br	954 <MACHINE+0xf8>
	  else if(STATE ==7)	{STATE_7(STATE);	}
     930:	e0bfff03 	ldbu	r2,-4(fp)
     934:	108001d8 	cmpnei	r2,r2,7
     938:	1000041e 	bne	r2,zero,94c <MACHINE+0xf0>
     93c:	e0bfff03 	ldbu	r2,-4(fp)
     940:	1009883a 	mov	r4,r2
     944:	0000df00 	call	df0 <STATE_7>
     948:	00000206 	br	954 <MACHINE+0xf8>
	  else {return FALSE;}
     94c:	0005883a 	mov	r2,zero
     950:	00000106 	br	958 <MACHINE+0xfc>
	  return TRUE;
     954:	00800044 	movi	r2,1
  }
     958:	e037883a 	mov	sp,fp
     95c:	dfc00117 	ldw	ra,4(sp)
     960:	df000017 	ldw	fp,0(sp)
     964:	dec00204 	addi	sp,sp,8
     968:	f800283a 	ret

0000096c <STATE_1>:

  //=============================================================================STATE 1=
  extern bool STATE_1(unsigned char STATE){
     96c:	defffd04 	addi	sp,sp,-12
     970:	dfc00215 	stw	ra,8(sp)
     974:	df000115 	stw	fp,4(sp)
     978:	df000104 	addi	fp,sp,4
     97c:	2005883a 	mov	r2,r4
     980:	e0bfff05 	stb	r2,-4(fp)
	  if(STATE == 1)
     984:	e0bfff03 	ldbu	r2,-4(fp)
     988:	10800058 	cmpnei	r2,r2,1
     98c:	1000291e 	bne	r2,zero,a34 <STATE_1+0xc8>
	  {
		  //Play Sound on Raspi
			digitalWrite_GPIO(GPIO2_0,LOW,0);			//SIGNAL SEND TO MSP430
     990:	01000044 	movi	r4,1
     994:	000b883a 	mov	r5,zero
     998:	000d883a 	mov	r6,zero
     99c:	000050c0 	call	50c <digitalWrite_GPIO>
			digitalWrite_GPIO(GPIO2_1,LOW ,0);			//SIGNAL SEND TO MSP430
     9a0:	01000084 	movi	r4,2
     9a4:	000b883a 	mov	r5,zero
     9a8:	000d883a 	mov	r6,zero
     9ac:	000050c0 	call	50c <digitalWrite_GPIO>

		 //SEND SIGNAL TO RASPI //PLAY SONG [2.mp3]
		 *RASPI_PIN = 0x0;
     9b0:	00802034 	movhi	r2,128
     9b4:	10800804 	addi	r2,r2,32
     9b8:	10000005 	stb	zero,0(r2)

		  digitalWrite_GPIO(GPIO2_1,HIGH,0);	//NOT SURE WHY -SCUMBAG MSP430
     9bc:	01000084 	movi	r4,2
     9c0:	01400044 	movi	r5,1
     9c4:	000d883a 	mov	r6,zero
     9c8:	000050c0 	call	50c <digitalWrite_GPIO>
		  while(*MSP430_TR_SE == 0x0){DELAY_CYCLES(1);}			//SIGNAL SEND TO MSP430};
     9cc:	00000206 	br	9d8 <STATE_1+0x6c>
     9d0:	01000044 	movi	r4,1
     9d4:	00001f80 	call	1f8 <DELAY_CYCLES>
     9d8:	00802034 	movhi	r2,128
     9dc:	10800c04 	addi	r2,r2,48
     9e0:	10800003 	ldbu	r2,0(r2)
     9e4:	10803fcc 	andi	r2,r2,255
     9e8:	103ff926 	beq	r2,zero,9d0 <STATE_1+0x64>
		  SERVO(0, 0X1F);
     9ec:	0009883a 	mov	r4,zero
     9f0:	014007c4 	movi	r5,31
     9f4:	0000e700 	call	e70 <SERVO>
		  DELAY_CYCLES(1000);
     9f8:	0100fa04 	movi	r4,1000
     9fc:	00001f80 	call	1f8 <DELAY_CYCLES>
		  digitalWrite_GPIO(GPIO2_1,HIGH,0);     //NOT SURE WHY -SCUMBAG MSP430
     a00:	01000084 	movi	r4,2
     a04:	01400044 	movi	r5,1
     a08:	000d883a 	mov	r6,zero
     a0c:	000050c0 	call	50c <digitalWrite_GPIO>
		  while(digitalRead_GPIO(GPIO2_3,0) == 0 )
     a10:	00000206 	br	a1c <STATE_1+0xb0>
				  {DELAY_CYCLES(1);}			//SIGNAL SEND TO MSP430};};//digitalRead_GPIO(GPIO2_1,0) == 0){}//poll high
     a14:	01000044 	movi	r4,1
     a18:	00001f80 	call	1f8 <DELAY_CYCLES>
		  digitalWrite_GPIO(GPIO2_1,HIGH,0);	//NOT SURE WHY -SCUMBAG MSP430
		  while(*MSP430_TR_SE == 0x0){DELAY_CYCLES(1);}			//SIGNAL SEND TO MSP430};
		  SERVO(0, 0X1F);
		  DELAY_CYCLES(1000);
		  digitalWrite_GPIO(GPIO2_1,HIGH,0);     //NOT SURE WHY -SCUMBAG MSP430
		  while(digitalRead_GPIO(GPIO2_3,0) == 0 )
     a1c:	01000204 	movi	r4,8
     a20:	000b883a 	mov	r5,zero
     a24:	00005e40 	call	5e4 <digitalRead_GPIO>
     a28:	103ffa26 	beq	r2,zero,a14 <STATE_1+0xa8>
				  {DELAY_CYCLES(1);}			//SIGNAL SEND TO MSP430};};//digitalRead_GPIO(GPIO2_1,0) == 0){}//poll high
		  return TRUE;
     a2c:	00800044 	movi	r2,1
     a30:	00000106 	br	a38 <STATE_1+0xcc>
	  }
	  else{return FALSE;}
     a34:	0005883a 	mov	r2,zero
  }
     a38:	e037883a 	mov	sp,fp
     a3c:	dfc00117 	ldw	ra,4(sp)
     a40:	df000017 	ldw	fp,0(sp)
     a44:	dec00204 	addi	sp,sp,8
     a48:	f800283a 	ret

00000a4c <STATE_2>:
  //==========================================================================STATE 1=END=

  //=============================================================================STATE 2=
  extern bool STATE_2(unsigned char STATE){
     a4c:	defffd04 	addi	sp,sp,-12
     a50:	dfc00215 	stw	ra,8(sp)
     a54:	df000115 	stw	fp,4(sp)
     a58:	df000104 	addi	fp,sp,4
     a5c:	2005883a 	mov	r2,r4
     a60:	e0bfff05 	stb	r2,-4(fp)
	  if(STATE == 2)
     a64:	e0bfff03 	ldbu	r2,-4(fp)
     a68:	10800098 	cmpnei	r2,r2,2
     a6c:	10001d1e 	bne	r2,zero,ae4 <STATE_2+0x98>
	  {
			digitalWrite_GPIO(GPIO2_0,LOW,0);			//SIGNAL SEND TO MSP430
     a70:	01000044 	movi	r4,1
     a74:	000b883a 	mov	r5,zero
     a78:	000d883a 	mov	r6,zero
     a7c:	000050c0 	call	50c <digitalWrite_GPIO>
			digitalWrite_GPIO(GPIO2_1,HIGH ,0);			//SIGNAL SEND TO MSP430
     a80:	01000084 	movi	r4,2
     a84:	01400044 	movi	r5,1
     a88:	000d883a 	mov	r6,zero
     a8c:	000050c0 	call	50c <digitalWrite_GPIO>
		  //Play Sound on Raspi
		  DELAY_CYCLES(1000000);
     a90:	010003f4 	movhi	r4,15
     a94:	21109004 	addi	r4,r4,16960
     a98:	00001f80 	call	1f8 <DELAY_CYCLES>
			digitalWrite_GPIO(PR_SN,LOW,0);
     a9c:	01000104 	movi	r4,4
     aa0:	000b883a 	mov	r5,zero
     aa4:	000d883a 	mov	r6,zero
     aa8:	000050c0 	call	50c <digitalWrite_GPIO>
			digitalWrite_GPIO(PR_SN,LOW,0);
     aac:	01000104 	movi	r4,4
     ab0:	000b883a 	mov	r5,zero
     ab4:	000d883a 	mov	r6,zero
     ab8:	000050c0 	call	50c <digitalWrite_GPIO>
			digitalWrite_GPIO(PR_SN,LOW,0);
     abc:	01000104 	movi	r4,4
     ac0:	000b883a 	mov	r5,zero
     ac4:	000d883a 	mov	r6,zero
     ac8:	000050c0 	call	50c <digitalWrite_GPIO>
			digitalWrite_GPIO(PR_SN,LOW,0);
     acc:	01000104 	movi	r4,4
     ad0:	000b883a 	mov	r5,zero
     ad4:	000d883a 	mov	r6,zero
     ad8:	000050c0 	call	50c <digitalWrite_GPIO>
		  return TRUE;
     adc:	00800044 	movi	r2,1
     ae0:	00000106 	br	ae8 <STATE_2+0x9c>
	  }
	  else{return FALSE;}
     ae4:	0005883a 	mov	r2,zero
  }
     ae8:	e037883a 	mov	sp,fp
     aec:	dfc00117 	ldw	ra,4(sp)
     af0:	df000017 	ldw	fp,0(sp)
     af4:	dec00204 	addi	sp,sp,8
     af8:	f800283a 	ret

00000afc <STATE_3>:
  //==========================================================================STATE 2=END=

  //=============================================================================STATE 3=
  extern bool STATE_3(unsigned char STATE){
     afc:	defffc04 	addi	sp,sp,-16
     b00:	dfc00315 	stw	ra,12(sp)
     b04:	df000215 	stw	fp,8(sp)
     b08:	df000204 	addi	fp,sp,8
     b0c:	2005883a 	mov	r2,r4
     b10:	e0bfff05 	stb	r2,-4(fp)
	  int count=0;
     b14:	e03ffe15 	stw	zero,-8(fp)
	  if(STATE == 3)
     b18:	e0bfff03 	ldbu	r2,-4(fp)
     b1c:	108000d8 	cmpnei	r2,r2,3
     b20:	10004b1e 	bne	r2,zero,c50 <STATE_3+0x154>
	  {
			digitalWrite_GPIO(GPIO2_0,LOW,0);			//SIGNAL SEND TO MSP430
     b24:	01000044 	movi	r4,1
     b28:	000b883a 	mov	r5,zero
     b2c:	000d883a 	mov	r6,zero
     b30:	000050c0 	call	50c <digitalWrite_GPIO>
			digitalWrite_GPIO(GPIO2_1,LOW ,0);			//SIGNAL SEND TO MSP430
     b34:	01000084 	movi	r4,2
     b38:	000b883a 	mov	r5,zero
     b3c:	000d883a 	mov	r6,zero
     b40:	000050c0 	call	50c <digitalWrite_GPIO>
     b44:	00000106 	br	b4c <STATE_3+0x50>
					  }			//SIGNAL SEND TO MSP430};};//digitalRead_GPIO(GPIO2_1,0) == 0){}//poll high
				  count++;
			  count ++;

			  SEG_OUT(count,DEC,true);
			  if(count < 2000){goto sensor;}
     b48:	0001883a 	nop
			sensor:
			 //POLL PRESSURE SENSOR,
			  //while(digitalRead_GPIO(PR_SN,0) == 1 )
				//	  {DELAY_CYCLES(1);}

  			digitalWrite_GPIO(PR_SN,LOW,0);
     b4c:	01000104 	movi	r4,4
     b50:	000b883a 	mov	r5,zero
     b54:	000d883a 	mov	r6,zero
     b58:	000050c0 	call	50c <digitalWrite_GPIO>
			while(digitalRead_GPIO(PR_SN,0) == 0 )
     b5c:	00000606 	br	b78 <STATE_3+0x7c>
					  {digitalWrite_GPIO(PR_SN,LOW,0);
     b60:	01000104 	movi	r4,4
     b64:	000b883a 	mov	r5,zero
     b68:	000d883a 	mov	r6,zero
     b6c:	000050c0 	call	50c <digitalWrite_GPIO>
					  DELAY_CYCLES(1);
     b70:	01000044 	movi	r4,1
     b74:	00001f80 	call	1f8 <DELAY_CYCLES>
			 //POLL PRESSURE SENSOR,
			  //while(digitalRead_GPIO(PR_SN,0) == 1 )
				//	  {DELAY_CYCLES(1);}

  			digitalWrite_GPIO(PR_SN,LOW,0);
			while(digitalRead_GPIO(PR_SN,0) == 0 )
     b78:	01000104 	movi	r4,4
     b7c:	000b883a 	mov	r5,zero
     b80:	00005e40 	call	5e4 <digitalRead_GPIO>
     b84:	103ff626 	beq	r2,zero,b60 <STATE_3+0x64>
					  {digitalWrite_GPIO(PR_SN,LOW,0);
					  DELAY_CYCLES(1);
					  }			//SIGNAL SEND TO MSP430};};//digitalRead_GPIO(GPIO2_1,0) == 0){}//poll high
				  count++;
     b88:	e0bffe17 	ldw	r2,-8(fp)
     b8c:	10800044 	addi	r2,r2,1
     b90:	e0bffe15 	stw	r2,-8(fp)
			  count ++;
     b94:	e0bffe17 	ldw	r2,-8(fp)
     b98:	10800044 	addi	r2,r2,1
     b9c:	e0bffe15 	stw	r2,-8(fp)

			  SEG_OUT(count,DEC,true);
     ba0:	e13ffe17 	ldw	r4,-8(fp)
     ba4:	01400404 	movi	r5,16
     ba8:	01800044 	movi	r6,1
     bac:	00003b40 	call	3b4 <SEG_OUT>
			  if(count < 2000){goto sensor;}
     bb0:	e0bffe17 	ldw	r2,-8(fp)
     bb4:	1081f408 	cmpgei	r2,r2,2000
     bb8:	103fe326 	beq	r2,zero,b48 <STATE_3+0x4c>
			  else{}
			 //LIGHTS UP LEDS R G B
			 //digitalWrite_GPIO(LED_R,HIGH,0);			//LED RED
			 digitalWrite_GPIO(LED_R,LOW ,0);			//LED RED
     bbc:	01002004 	movi	r4,128
     bc0:	000b883a 	mov	r5,zero
     bc4:	000d883a 	mov	r6,zero
     bc8:	000050c0 	call	50c <digitalWrite_GPIO>
			 DELAY_CYCLES(100000);
     bcc:	010000b4 	movhi	r4,2
     bd0:	2121a804 	addi	r4,r4,-31072
     bd4:	00001f80 	call	1f8 <DELAY_CYCLES>
			 digitalWrite_GPIO(LED_Y,HIGH ,0);			//LED YELLOW
     bd8:	01001004 	movi	r4,64
     bdc:	01400044 	movi	r5,1
     be0:	000d883a 	mov	r6,zero
     be4:	000050c0 	call	50c <digitalWrite_GPIO>
			 DELAY_CYCLES(50000);
     be8:	0130d414 	movui	r4,50000
     bec:	00001f80 	call	1f8 <DELAY_CYCLES>
			 digitalWrite_GPIO(LED_G,HIGH ,0);			//LED GREEN
     bf0:	01000804 	movi	r4,32
     bf4:	01400044 	movi	r5,1
     bf8:	000d883a 	mov	r6,zero
     bfc:	000050c0 	call	50c <digitalWrite_GPIO>
			 DELAY_CYCLES(100000);
     c00:	010000b4 	movhi	r4,2
     c04:	2121a804 	addi	r4,r4,-31072
     c08:	00001f80 	call	1f8 <DELAY_CYCLES>
			 digitalWrite_GPIO(LED_Y,LOW ,0);			//LED YELLOW
     c0c:	01001004 	movi	r4,64
     c10:	000b883a 	mov	r5,zero
     c14:	000d883a 	mov	r6,zero
     c18:	000050c0 	call	50c <digitalWrite_GPIO>



			 //SEND SIGNAL TO RASPI //PLAY SONG [3.mp3]
			 *RASPI_PIN = 0x1;
     c1c:	00802034 	movhi	r2,128
     c20:	10800804 	addi	r2,r2,32
     c24:	00c00044 	movi	r3,1
     c28:	10c00005 	stb	r3,0(r2)
			 DC_MOT(0x0,0x4,TRUE);
     c2c:	0009883a 	mov	r4,zero
     c30:	01400104 	movi	r5,4
     c34:	01800044 	movi	r6,1
     c38:	0000ec80 	call	ec8 <DC_MOT>
			 //Play Sound on Raspi
			 DELAY_CYCLES(1000000);
     c3c:	010003f4 	movhi	r4,15
     c40:	21109004 	addi	r4,r4,16960
     c44:	00001f80 	call	1f8 <DELAY_CYCLES>
			 //control SERVO TRACK SERVO
		  return TRUE;
     c48:	00800044 	movi	r2,1
     c4c:	00000106 	br	c54 <STATE_3+0x158>
	  }
	  else
	  {return FALSE;}
     c50:	0005883a 	mov	r2,zero
  }
     c54:	e037883a 	mov	sp,fp
     c58:	dfc00117 	ldw	ra,4(sp)
     c5c:	df000017 	ldw	fp,0(sp)
     c60:	dec00204 	addi	sp,sp,8
     c64:	f800283a 	ret

00000c68 <STATE_4>:
  //==========================================================================STATE 3=END=

  //=============================================================================STATE 4=
  extern bool STATE_4(unsigned char STATE){
     c68:	defffd04 	addi	sp,sp,-12
     c6c:	dfc00215 	stw	ra,8(sp)
     c70:	df000115 	stw	fp,4(sp)
     c74:	df000104 	addi	fp,sp,4
     c78:	2005883a 	mov	r2,r4
     c7c:	e0bfff05 	stb	r2,-4(fp)
	  if(STATE == 4)
     c80:	e0bfff03 	ldbu	r2,-4(fp)
     c84:	10800118 	cmpnei	r2,r2,4
     c88:	10000d1e 	bne	r2,zero,cc0 <STATE_4+0x58>
	  {
			digitalWrite_GPIO(GPIO2_0,LOW,0);			//SIGNAL SEND TO MSP430
     c8c:	01000044 	movi	r4,1
     c90:	000b883a 	mov	r5,zero
     c94:	000d883a 	mov	r6,zero
     c98:	000050c0 	call	50c <digitalWrite_GPIO>
			digitalWrite_GPIO(GPIO2_1,HIGH ,0);			//SIGNAL SEND TO MSP430
     c9c:	01000084 	movi	r4,2
     ca0:	01400044 	movi	r5,1
     ca4:	000d883a 	mov	r6,zero
     ca8:	000050c0 	call	50c <digitalWrite_GPIO>
		  //Play Sound on Raspi
		  DELAY_CYCLES(1000000);
     cac:	010003f4 	movhi	r4,15
     cb0:	21109004 	addi	r4,r4,16960
     cb4:	00001f80 	call	1f8 <DELAY_CYCLES>
		  return TRUE;
     cb8:	00800044 	movi	r2,1
     cbc:	00000106 	br	cc4 <STATE_4+0x5c>
	  }
	  else{return FALSE;}
     cc0:	0005883a 	mov	r2,zero
  }
     cc4:	e037883a 	mov	sp,fp
     cc8:	dfc00117 	ldw	ra,4(sp)
     ccc:	df000017 	ldw	fp,0(sp)
     cd0:	dec00204 	addi	sp,sp,8
     cd4:	f800283a 	ret

00000cd8 <STATE_5>:
  //==========================================================================STATE 4=END=

  //=============================================================================STATE 5=
  extern bool STATE_5(unsigned char STATE){
     cd8:	defffd04 	addi	sp,sp,-12
     cdc:	dfc00215 	stw	ra,8(sp)
     ce0:	df000115 	stw	fp,4(sp)
     ce4:	df000104 	addi	fp,sp,4
     ce8:	2005883a 	mov	r2,r4
     cec:	e0bfff05 	stb	r2,-4(fp)
	  if(STATE == 5)
     cf0:	e0bfff03 	ldbu	r2,-4(fp)
     cf4:	10800158 	cmpnei	r2,r2,5
     cf8:	1000101e 	bne	r2,zero,d3c <STATE_5+0x64>
	  {
			digitalWrite_GPIO(GPIO2_0,LOW,0);			//SIGNAL SEND TO MSP430
     cfc:	01000044 	movi	r4,1
     d00:	000b883a 	mov	r5,zero
     d04:	000d883a 	mov	r6,zero
     d08:	000050c0 	call	50c <digitalWrite_GPIO>
			digitalWrite_GPIO(GPIO2_1,LOW ,0);			//SIGNAL SEND TO MSP430
     d0c:	01000084 	movi	r4,2
     d10:	000b883a 	mov	r5,zero
     d14:	000d883a 	mov	r6,zero
     d18:	000050c0 	call	50c <digitalWrite_GPIO>

			 //SEND SIGNAL TO RASPI //PLAY SONG [4.mp3]
			 *RASPI_PIN = 0x0;
     d1c:	00802034 	movhi	r2,128
     d20:	10800804 	addi	r2,r2,32
     d24:	10000005 	stb	zero,0(r2)

		  //Play Sound on Raspi
		  DELAY_CYCLES(1000000);
     d28:	010003f4 	movhi	r4,15
     d2c:	21109004 	addi	r4,r4,16960
     d30:	00001f80 	call	1f8 <DELAY_CYCLES>
		  return TRUE;
     d34:	00800044 	movi	r2,1
     d38:	00000106 	br	d40 <STATE_5+0x68>
	  }
	  else{return FALSE;}
     d3c:	0005883a 	mov	r2,zero
  }
     d40:	e037883a 	mov	sp,fp
     d44:	dfc00117 	ldw	ra,4(sp)
     d48:	df000017 	ldw	fp,0(sp)
     d4c:	dec00204 	addi	sp,sp,8
     d50:	f800283a 	ret

00000d54 <STATE_6>:
  //==========================================================================STATE 5=END=

  //=============================================================================STATE 6=
  extern bool STATE_6(unsigned char STATE){
     d54:	defffd04 	addi	sp,sp,-12
     d58:	dfc00215 	stw	ra,8(sp)
     d5c:	df000115 	stw	fp,4(sp)
     d60:	df000104 	addi	fp,sp,4
     d64:	2005883a 	mov	r2,r4
     d68:	e0bfff05 	stb	r2,-4(fp)
	  if(STATE == 6)
     d6c:	e0bfff03 	ldbu	r2,-4(fp)
     d70:	10800198 	cmpnei	r2,r2,6
     d74:	1000181e 	bne	r2,zero,dd8 <STATE_6+0x84>
	  {
			digitalWrite_GPIO(GPIO2_0,LOW,0);			//SIGNAL SEND TO MSP430
     d78:	01000044 	movi	r4,1
     d7c:	000b883a 	mov	r5,zero
     d80:	000d883a 	mov	r6,zero
     d84:	000050c0 	call	50c <digitalWrite_GPIO>
			digitalWrite_GPIO(GPIO2_1,HIGH ,0);			//SIGNAL SEND TO MSP430
     d88:	01000084 	movi	r4,2
     d8c:	01400044 	movi	r5,1
     d90:	000d883a 	mov	r6,zero
     d94:	000050c0 	call	50c <digitalWrite_GPIO>

			while(digitalRead_GPIO(GPIO2_4,0) == 0 )
     d98:	00000206 	br	da4 <STATE_6+0x50>
					  {DELAY_CYCLES(1);}			//SIGNAL SEND TO LIFT};};//digitalRead_GPIO(GPIO2_1,0) == 0){}//poll high
     d9c:	01000044 	movi	r4,1
     da0:	00001f80 	call	1f8 <DELAY_CYCLES>
	  if(STATE == 6)
	  {
			digitalWrite_GPIO(GPIO2_0,LOW,0);			//SIGNAL SEND TO MSP430
			digitalWrite_GPIO(GPIO2_1,HIGH ,0);			//SIGNAL SEND TO MSP430

			while(digitalRead_GPIO(GPIO2_4,0) == 0 )
     da4:	01000404 	movi	r4,16
     da8:	000b883a 	mov	r5,zero
     dac:	00005e40 	call	5e4 <digitalRead_GPIO>
     db0:	103ffa26 	beq	r2,zero,d9c <STATE_6+0x48>
					  {DELAY_CYCLES(1);}			//SIGNAL SEND TO LIFT};};//digitalRead_GPIO(GPIO2_1,0) == 0){}//poll high

			STEPPER(0x0, 0x2, TRUE); //DRIVE LIFT MOTOR
     db4:	0009883a 	mov	r4,zero
     db8:	01400084 	movi	r5,2
     dbc:	01800044 	movi	r6,1
     dc0:	0000f400 	call	f40 <STEPPER>

		  //Play Sound on Raspi
		  DELAY_CYCLES(1000000);
     dc4:	010003f4 	movhi	r4,15
     dc8:	21109004 	addi	r4,r4,16960
     dcc:	00001f80 	call	1f8 <DELAY_CYCLES>
		  return TRUE;
     dd0:	00800044 	movi	r2,1
     dd4:	00000106 	br	ddc <STATE_6+0x88>
	  }
	  else{return FALSE;}
     dd8:	0005883a 	mov	r2,zero
  }
     ddc:	e037883a 	mov	sp,fp
     de0:	dfc00117 	ldw	ra,4(sp)
     de4:	df000017 	ldw	fp,0(sp)
     de8:	dec00204 	addi	sp,sp,8
     dec:	f800283a 	ret

00000df0 <STATE_7>:
  //==========================================================================STATE 6=END=

  //=============================================================================STATE 7=
  extern bool STATE_7(unsigned char STATE){
     df0:	defffd04 	addi	sp,sp,-12
     df4:	dfc00215 	stw	ra,8(sp)
     df8:	df000115 	stw	fp,4(sp)
     dfc:	df000104 	addi	fp,sp,4
     e00:	2005883a 	mov	r2,r4
     e04:	e0bfff05 	stb	r2,-4(fp)
	  if(STATE == 7)
     e08:	e0bfff03 	ldbu	r2,-4(fp)
     e0c:	108001d8 	cmpnei	r2,r2,7
     e10:	1000111e 	bne	r2,zero,e58 <STATE_7+0x68>
	  {
			digitalWrite_GPIO(GPIO2_0,LOW,0);			//SIGNAL SEND TO MSP430
     e14:	01000044 	movi	r4,1
     e18:	000b883a 	mov	r5,zero
     e1c:	000d883a 	mov	r6,zero
     e20:	000050c0 	call	50c <digitalWrite_GPIO>
			digitalWrite_GPIO(GPIO2_1,LOW ,0);			//SIGNAL SEND TO MSP430
     e24:	01000084 	movi	r4,2
     e28:	000b883a 	mov	r5,zero
     e2c:	000d883a 	mov	r6,zero
     e30:	000050c0 	call	50c <digitalWrite_GPIO>

			STEPPER(0x0, 0x2, FALSE); //STOP LIFT MOTOR
     e34:	0009883a 	mov	r4,zero
     e38:	01400084 	movi	r5,2
     e3c:	000d883a 	mov	r6,zero
     e40:	0000f400 	call	f40 <STEPPER>
		  //Play Sound on Raspi
		  DELAY_CYCLES(1000000);
     e44:	010003f4 	movhi	r4,15
     e48:	21109004 	addi	r4,r4,16960
     e4c:	00001f80 	call	1f8 <DELAY_CYCLES>
		  return TRUE;
     e50:	00800044 	movi	r2,1
     e54:	00000106 	br	e5c <STATE_7+0x6c>
	  }
	  else{return FALSE;}
     e58:	0005883a 	mov	r2,zero
  }
     e5c:	e037883a 	mov	sp,fp
     e60:	dfc00117 	ldw	ra,4(sp)
     e64:	df000017 	ldw	fp,0(sp)
     e68:	dec00204 	addi	sp,sp,8
     e6c:	f800283a 	ret

00000e70 <SERVO>:
  //==========================================================================STATE 7=END=


  void SERVO(unsigned int x, unsigned char SPEED) //DIR 1 = LEFT 0 = RIGHT
  {
     e70:	defffd04 	addi	sp,sp,-12
     e74:	df000215 	stw	fp,8(sp)
     e78:	df000204 	addi	fp,sp,8
     e7c:	e13ffe15 	stw	r4,-8(fp)
     e80:	2805883a 	mov	r2,r5
     e84:	e0bfff05 	stb	r2,-4(fp)
	  //AVOID USING OVER )0x8F for BIG SERVO
	if(x == 0){
     e88:	e0bffe17 	ldw	r2,-8(fp)
     e8c:	1000031e 	bne	r2,zero,e9c <SERVO+0x2c>
			  *SERVO_P0= SPEED;
     e90:	00802034 	movhi	r2,128
     e94:	e0ffff03 	ldbu	r3,-4(fp)
     e98:	10c00005 	stb	r3,0(r2)
			  }
	if(x == 1){
     e9c:	e0bffe17 	ldw	r2,-8(fp)
     ea0:	10800058 	cmpnei	r2,r2,1
     ea4:	1000041e 	bne	r2,zero,eb8 <SERVO+0x48>
		      *SERVO_P1= SPEED;
     ea8:	00802034 	movhi	r2,128
     eac:	10802404 	addi	r2,r2,144
     eb0:	e0ffff03 	ldbu	r3,-4(fp)
     eb4:	10c00005 	stb	r3,0(r2)
	}
  }
     eb8:	e037883a 	mov	sp,fp
     ebc:	df000017 	ldw	fp,0(sp)
     ec0:	dec00104 	addi	sp,sp,4
     ec4:	f800283a 	ret

00000ec8 <DC_MOT>:

void DC_MOT(unsigned char DIR, unsigned char SPEED, bool MODE  )
	{
     ec8:	defffc04 	addi	sp,sp,-16
     ecc:	df000315 	stw	fp,12(sp)
     ed0:	df000304 	addi	fp,sp,12
     ed4:	2007883a 	mov	r3,r4
     ed8:	2805883a 	mov	r2,r5
     edc:	e1bfff15 	stw	r6,-4(fp)
     ee0:	e0fffd05 	stb	r3,-12(fp)
     ee4:	e0bffe05 	stb	r2,-8(fp)
			*DC_MOT_DIR  = DIR; // 0x0 anti clock wise; 0x1 clockwise
     ee8:	00802034 	movhi	r2,128
     eec:	10801404 	addi	r2,r2,80
     ef0:	e0fffd03 	ldbu	r3,-12(fp)
     ef4:	10c00005 	stb	r3,0(r2)
			*DC_MOT_SEL  = SPEED; // 0x0 - fastest 0x2 - mid 0x4 - slow //0x1 not useable
     ef8:	00802034 	movhi	r2,128
     efc:	10800404 	addi	r2,r2,16
     f00:	e0fffe03 	ldbu	r3,-8(fp)
     f04:	10c00005 	stb	r3,0(r2)
			if(MODE){*DC_MOT_STOP = 0x1;} // 0x0 STOP ; 0x1 RUN
     f08:	e0bfff17 	ldw	r2,-4(fp)
     f0c:	10000526 	beq	r2,zero,f24 <DC_MOT+0x5c>
     f10:	00802034 	movhi	r2,128
     f14:	10801004 	addi	r2,r2,64
     f18:	00c00044 	movi	r3,1
     f1c:	10c00005 	stb	r3,0(r2)
     f20:	00000306 	br	f30 <DC_MOT+0x68>
			else{*DC_MOT_STOP = 0x0;} // 0x0 STOP ; 0x1 RUN
     f24:	00802034 	movhi	r2,128
     f28:	10801004 	addi	r2,r2,64
     f2c:	10000005 	stb	zero,0(r2)
	}
     f30:	e037883a 	mov	sp,fp
     f34:	df000017 	ldw	fp,0(sp)
     f38:	dec00104 	addi	sp,sp,4
     f3c:	f800283a 	ret

00000f40 <STEPPER>:

void STEPPER(unsigned char DIR, unsigned char SPEED, bool MODE  )
	{
     f40:	defffc04 	addi	sp,sp,-16
     f44:	df000315 	stw	fp,12(sp)
     f48:	df000304 	addi	fp,sp,12
     f4c:	2007883a 	mov	r3,r4
     f50:	2805883a 	mov	r2,r5
     f54:	e1bfff15 	stw	r6,-4(fp)
     f58:	e0fffd05 	stb	r3,-12(fp)
     f5c:	e0bffe05 	stb	r2,-8(fp)
			*STEP_DIR  = DIR; // 0x1 anti clock wise; 0x0 clockwise
     f60:	00802034 	movhi	r2,128
     f64:	10802004 	addi	r2,r2,128
     f68:	e0fffd03 	ldbu	r3,-12(fp)
     f6c:	10c00005 	stb	r3,0(r2)
			*STEP_SEL  = SPEED; //0x2 FASTEST //0x1 MID //0x0 SLOW //0x3 SLOWEST
     f70:	00802034 	movhi	r2,128
     f74:	10801c04 	addi	r2,r2,112
     f78:	e0fffe03 	ldbu	r3,-8(fp)
     f7c:	10c00005 	stb	r3,0(r2)
			if(MODE){*STEP_STOP = 0x1;} // 0x0 STOP ; 0x1 RUN
     f80:	e0bfff17 	ldw	r2,-4(fp)
     f84:	10000526 	beq	r2,zero,f9c <STEPPER+0x5c>
     f88:	00802034 	movhi	r2,128
     f8c:	10801804 	addi	r2,r2,96
     f90:	00c00044 	movi	r3,1
     f94:	10c00005 	stb	r3,0(r2)
     f98:	00000306 	br	fa8 <STEPPER+0x68>
			else{*STEP_STOP = 0x0;} // 0x0 STOP ; 0x1 RUN
     f9c:	00802034 	movhi	r2,128
     fa0:	10801804 	addi	r2,r2,96
     fa4:	10000005 	stb	zero,0(r2)
	}
     fa8:	e037883a 	mov	sp,fp
     fac:	df000017 	ldw	fp,0(sp)
     fb0:	dec00104 	addi	sp,sp,4
     fb4:	f800283a 	ret

00000fb8 <main>:

//==== Global Functions Variables =================================================================================END=


int main()
{
     fb8:	defffd04 	addi	sp,sp,-12
     fbc:	dfc00215 	stw	ra,8(sp)
     fc0:	df000115 	stw	fp,4(sp)
     fc4:	df000104 	addi	fp,sp,4
//======================================================================================================================
//  																							     | Initialize zone |
//======================================================================================================================
  INIT_GPIO()		; 				//REMOVE PAST VALUE ON GPIO REGISTER
     fc8:	00006880 	call	688 <INIT_GPIO>
//==== Initialize zone =============================================================================================END=
int var = 0;
     fcc:	e03fff15 	stw	zero,-4(fp)
//  																										    | LOOP |
//======================================================================================================================
while(1)
{
	//DEBUG MSP430=============================================================================
	  if(*SW_switch_ptr == 0x80 || DEBUG_MSP){
     fd0:	00840034 	movhi	r2,4096
     fd4:	10801004 	addi	r2,r2,64
     fd8:	10800003 	ldbu	r2,0(r2)
     fdc:	10803fcc 	andi	r2,r2,255
     fe0:	10802020 	cmpeqi	r2,r2,128
     fe4:	1000021e 	bne	r2,zero,ff0 <main+0x38>
     fe8:	d0a74c17 	ldw	r2,-25296(gp)
     fec:	10010d26 	beq	r2,zero,1424 <main+0x46c>
		  	SEG_OUT(430,DEC,true);
     ff0:	01006b84 	movi	r4,430
     ff4:	01400404 	movi	r5,16
     ff8:	01800044 	movi	r6,1
     ffc:	00003b40 	call	3b4 <SEG_OUT>
		  	INIT_GPIO();
    1000:	00006880 	call	688 <INIT_GPIO>
//
//				SEG_OUT(count,DEC,true);

					//STEPPER(0x0, 0x2, TRUE);
					//DC_MOT(0x1,0x4,TRUE);
					SERVO(0,var); //90degree
    1004:	e0bfff17 	ldw	r2,-4(fp)
    1008:	10803fcc 	andi	r2,r2,255
    100c:	0009883a 	mov	r4,zero
    1010:	100b883a 	mov	r5,r2
    1014:	0000e700 	call	e70 <SERVO>
					DELAY_CYCLES(1);
    1018:	01000044 	movi	r4,1
    101c:	00001f80 	call	1f8 <DELAY_CYCLES>
					SERVO(1,var); //90degree
    1020:	e0bfff17 	ldw	r2,-4(fp)
    1024:	10803fcc 	andi	r2,r2,255
    1028:	01000044 	movi	r4,1
    102c:	100b883a 	mov	r5,r2
    1030:	0000e700 	call	e70 <SERVO>
					DELAY_CYCLES(100000);
    1034:	010000b4 	movhi	r4,2
    1038:	2121a804 	addi	r4,r4,-31072
    103c:	00001f80 	call	1f8 <DELAY_CYCLES>
					var++;
    1040:	e0bfff17 	ldw	r2,-4(fp)
    1044:	10800044 	addi	r2,r2,1
    1048:	e0bfff15 	stw	r2,-4(fp)
					if(var ==0x1F){
    104c:	e0bfff17 	ldw	r2,-4(fp)
    1050:	108007d8 	cmpnei	r2,r2,31
    1054:	1000011e 	bne	r2,zero,105c <main+0xa4>
						var = 0;
    1058:	e03fff15 	stw	zero,-4(fp)
					}
				    *ADDR_JP2PORT  = *SW_switch_ptr;    //USE SW0 SW1 TO CONTROL GPIO2_0  GPIO2_1
    105c:	00840034 	movhi	r2,4096
    1060:	10801c04 	addi	r2,r2,112
    1064:	00c40034 	movhi	r3,4096
    1068:	18c01004 	addi	r3,r3,64
    106c:	18c00003 	ldbu	r3,0(r3)
    1070:	10c00005 	stb	r3,0(r2)
				    *RASPI_PIN     = *SW_switch_ptr;	//USE SW0 to control RASPI_PIN
    1074:	00802034 	movhi	r2,128
    1078:	10800804 	addi	r2,r2,32
    107c:	00c40034 	movhi	r3,4096
    1080:	18c01004 	addi	r3,r3,64
    1084:	18c00003 	ldbu	r3,0(r3)
    1088:	10c00005 	stb	r3,0(r2)
			  }
    108c:	003fdd06 	br	1004 <main+0x4c>

//==== MAIN STATE MACHINE ================================================================================================

  while(*SW_switch_ptr != 0x80 && STATE<9)
  {
      if(!DEBUG){
    1090:	d0a74d17 	ldw	r2,-25292(gp)
    1094:	1000161e 	bne	r2,zero,10f0 <main+0x138>
         printf("\nDE0_GPIO2_0 STATUS: ");
    1098:	01000074 	movhi	r4,1
    109c:	21366b04 	addi	r4,r4,-9812
    10a0:	00014840 	call	1484 <printf>
         printf("%d",(int)digitalRead_GPIO(GPIO2_0,0));
    10a4:	01000044 	movi	r4,1
    10a8:	000b883a 	mov	r5,zero
    10ac:	00005e40 	call	5e4 <digitalRead_GPIO>
    10b0:	01000074 	movhi	r4,1
    10b4:	21367104 	addi	r4,r4,-9788
    10b8:	100b883a 	mov	r5,r2
    10bc:	00014840 	call	1484 <printf>
         printf("\nDE0_GPIO2_1 STATUS: ");
    10c0:	01000074 	movhi	r4,1
    10c4:	21367204 	addi	r4,r4,-9784
    10c8:	00014840 	call	1484 <printf>
         printf("%d",(int)digitalRead_GPIO(GPIO2_1,0));
    10cc:	01000084 	movi	r4,2
    10d0:	000b883a 	mov	r5,zero
    10d4:	00005e40 	call	5e4 <digitalRead_GPIO>
    10d8:	01000074 	movhi	r4,1
    10dc:	21367104 	addi	r4,r4,-9788
    10e0:	100b883a 	mov	r5,r2
    10e4:	00014840 	call	1484 <printf>
         printf("\n");
    10e8:	01000284 	movi	r4,10
    10ec:	00014c80 	call	14c8 <putchar>
      }

	  //==============================================================================RESET=
		if(STATE == 8)
    10f0:	d0a00003 	ldbu	r2,-32768(gp)
    10f4:	10803fcc 	andi	r2,r2,255
    10f8:	10800218 	cmpnei	r2,r2,8
    10fc:	1000371e 	bne	r2,zero,11dc <main+0x224>
		{
	         if(DEBUG) printf("\nCurrent STATE: ");
    1100:	d0a74d17 	ldw	r2,-25292(gp)
    1104:	10000326 	beq	r2,zero,1114 <main+0x15c>
    1108:	01000074 	movhi	r4,1
    110c:	21367804 	addi	r4,r4,-9760
    1110:	00014840 	call	1484 <printf>
	         if(DEBUG) printf("%d",(int)STATE);
    1114:	d0a74d17 	ldw	r2,-25292(gp)
    1118:	10000626 	beq	r2,zero,1134 <main+0x17c>
    111c:	d0a00003 	ldbu	r2,-32768(gp)
    1120:	10803fcc 	andi	r2,r2,255
    1124:	01000074 	movhi	r4,1
    1128:	21367104 	addi	r4,r4,-9788
    112c:	100b883a 	mov	r5,r2
    1130:	00014840 	call	1484 <printf>
	         if(DEBUG) printf("\n");
    1134:	d0a74d17 	ldw	r2,-25292(gp)
    1138:	10000226 	beq	r2,zero,1144 <main+0x18c>
    113c:	01000284 	movi	r4,10
    1140:	00014c80 	call	14c8 <putchar>

			 //SEND SIGNAL TO RASPI //PLAY SONG [1.mp3]
			 *RASPI_PIN = 0x1;
    1144:	00802034 	movhi	r2,128
    1148:	10800804 	addi	r2,r2,32
    114c:	00c00044 	movi	r3,1
    1150:	10c00005 	stb	r3,0(r2)

			//MSP430 SIGNAL [1/0]
			digitalWrite_GPIO(GPIO2_0,HIGH,0);			//SIGNAL SEND TO MSP430
    1154:	01000044 	movi	r4,1
    1158:	01400044 	movi	r5,1
    115c:	000d883a 	mov	r6,zero
    1160:	000050c0 	call	50c <digitalWrite_GPIO>
			digitalWrite_GPIO(GPIO2_1,LOW ,0);			//SIGNAL SEND TO MSP430
    1164:	01000084 	movi	r4,2
    1168:	000b883a 	mov	r5,zero
    116c:	000d883a 	mov	r6,zero
    1170:	000050c0 	call	50c <digitalWrite_GPIO>

			SEG_OUT(STATE,DEC,TRUE);				    //PRINT STATE ON 7SEG
    1174:	d0a00003 	ldbu	r2,-32768(gp)
    1178:	10803fcc 	andi	r2,r2,255
    117c:	1009883a 	mov	r4,r2
    1180:	01400404 	movi	r5,16
    1184:	01800044 	movi	r6,1
    1188:	00003b40 	call	3b4 <SEG_OUT>

			if(RESET(STATE) == TRUE) {
    118c:	d0a00003 	ldbu	r2,-32768(gp)
    1190:	10803fcc 	andi	r2,r2,255
    1194:	1009883a 	mov	r4,r2
    1198:	00007800 	call	780 <RESET>
    119c:	10800058 	cmpnei	r2,r2,1
    11a0:	10000e1e 	bne	r2,zero,11dc <main+0x224>
				digitalWrite_GPIO(GPIO2_1,LOW ,0);		//SIGNAL SEND TO MSP430
    11a4:	01000084 	movi	r4,2
    11a8:	000b883a 	mov	r5,zero
    11ac:	000d883a 	mov	r6,zero
    11b0:	000050c0 	call	50c <digitalWrite_GPIO>
				while(digitalRead_GPIO(GPIO2_1,0) == 0){DELAY_CYCLES(1);}//poll high
    11b4:	00000206 	br	11c0 <main+0x208>
    11b8:	01000044 	movi	r4,1
    11bc:	00001f80 	call	1f8 <DELAY_CYCLES>
    11c0:	01000084 	movi	r4,2
    11c4:	000b883a 	mov	r5,zero
    11c8:	00005e40 	call	5e4 <digitalRead_GPIO>
    11cc:	103ffa26 	beq	r2,zero,11b8 <main+0x200>
				STATE++;
    11d0:	d0a00003 	ldbu	r2,-32768(gp)
    11d4:	10800044 	addi	r2,r2,1
    11d8:	d0a00005 	stb	r2,-32768(gp)
		}
		else{}
	  //===========================================================================RESET=END=

	  //==============================================================================READY=
		if(STATE == 0)
    11dc:	d0a00003 	ldbu	r2,-32768(gp)
    11e0:	10803fcc 	andi	r2,r2,255
    11e4:	1000301e 	bne	r2,zero,12a8 <main+0x2f0>
		{
			 if(DEBUG) printf("\nCurrent STATE: ");
    11e8:	d0a74d17 	ldw	r2,-25292(gp)
    11ec:	10000326 	beq	r2,zero,11fc <main+0x244>
    11f0:	01000074 	movhi	r4,1
    11f4:	21367804 	addi	r4,r4,-9760
    11f8:	00014840 	call	1484 <printf>
			 if(DEBUG) printf("%d",(int)STATE);
    11fc:	d0a74d17 	ldw	r2,-25292(gp)
    1200:	10000626 	beq	r2,zero,121c <main+0x264>
    1204:	d0a00003 	ldbu	r2,-32768(gp)
    1208:	10803fcc 	andi	r2,r2,255
    120c:	01000074 	movhi	r4,1
    1210:	21367104 	addi	r4,r4,-9788
    1214:	100b883a 	mov	r5,r2
    1218:	00014840 	call	1484 <printf>
			 if(DEBUG) printf("\n");
    121c:	d0a74d17 	ldw	r2,-25292(gp)
    1220:	10000226 	beq	r2,zero,122c <main+0x274>
    1224:	01000284 	movi	r4,10
    1228:	00014c80 	call	14c8 <putchar>

			digitalWrite_GPIO(GPIO2_0,HIGH,0);			//SIGNAL SEND TO MSP430
    122c:	01000044 	movi	r4,1
    1230:	01400044 	movi	r5,1
    1234:	000d883a 	mov	r6,zero
    1238:	000050c0 	call	50c <digitalWrite_GPIO>
			digitalWrite_GPIO(GPIO2_1,HIGH,0);			//SIGNAL SEND TO MSP430
    123c:	01000084 	movi	r4,2
    1240:	01400044 	movi	r5,1
    1244:	000d883a 	mov	r6,zero
    1248:	000050c0 	call	50c <digitalWrite_GPIO>



			SEG_OUT(STATE,DEC,TRUE);				//PRINT STATE ON 7SEG
    124c:	d0a00003 	ldbu	r2,-32768(gp)
    1250:	10803fcc 	andi	r2,r2,255
    1254:	1009883a 	mov	r4,r2
    1258:	01400404 	movi	r5,16
    125c:	01800044 	movi	r6,1
    1260:	00003b40 	call	3b4 <SEG_OUT>

			if(READY(STATE) == TRUE) {
    1264:	d0a00003 	ldbu	r2,-32768(gp)
    1268:	10803fcc 	andi	r2,r2,255
    126c:	1009883a 	mov	r4,r2
    1270:	00008140 	call	814 <READY>
    1274:	10800058 	cmpnei	r2,r2,1
    1278:	10000b1e 	bne	r2,zero,12a8 <main+0x2f0>
				while(digitalRead_GPIO(GPIO2_0,0) == 1){DELAY_CYCLES(1);}	//COMMENT WHEN DEBUG //POLL LOW FROM MSP430 ON P2_5/GPIO2_0 //BALL ENTER //PROB
    127c:	00000206 	br	1288 <main+0x2d0>
    1280:	01000044 	movi	r4,1
    1284:	00001f80 	call	1f8 <DELAY_CYCLES>
    1288:	01000044 	movi	r4,1
    128c:	000b883a 	mov	r5,zero
    1290:	00005e40 	call	5e4 <digitalRead_GPIO>
    1294:	10800060 	cmpeqi	r2,r2,1
    1298:	103ff91e 	bne	r2,zero,1280 <main+0x2c8>
				//DELAY_CYCLES(1000);
				STATE++;
    129c:	d0a00003 	ldbu	r2,-32768(gp)
    12a0:	10800044 	addi	r2,r2,1
    12a4:	d0a00005 	stb	r2,-32768(gp)
		}

	  //===========================================================================READY=END=

      //=============================================================================STATES =
		if(STATE>0 && STATE <8)
    12a8:	d0a00003 	ldbu	r2,-32768(gp)
    12ac:	10803fcc 	andi	r2,r2,255
    12b0:	10005d26 	beq	r2,zero,1428 <main+0x470>
    12b4:	d0a00003 	ldbu	r2,-32768(gp)
    12b8:	10803fcc 	andi	r2,r2,255
    12bc:	10800228 	cmpgeui	r2,r2,8
    12c0:	1000591e 	bne	r2,zero,1428 <main+0x470>
		{
			 if(DEBUG) printf("\nCurrent STATE: ");
    12c4:	d0a74d17 	ldw	r2,-25292(gp)
    12c8:	10000326 	beq	r2,zero,12d8 <main+0x320>
    12cc:	01000074 	movhi	r4,1
    12d0:	21367804 	addi	r4,r4,-9760
    12d4:	00014840 	call	1484 <printf>
			 if(1) printf("%d",(int)STATE);
    12d8:	d0a00003 	ldbu	r2,-32768(gp)
    12dc:	10803fcc 	andi	r2,r2,255
    12e0:	01000074 	movhi	r4,1
    12e4:	21367104 	addi	r4,r4,-9788
    12e8:	100b883a 	mov	r5,r2
    12ec:	00014840 	call	1484 <printf>
			 if(1) printf("\n");
    12f0:	01000284 	movi	r4,10
    12f4:	00014c80 	call	14c8 <putchar>

			//MSP430 SIGNAL [1/0]
			 if(STATE != 7 ){digitalWrite_GPIO(GPIO2_0, LOW,0);}
    12f8:	d0a00003 	ldbu	r2,-32768(gp)
    12fc:	10803fcc 	andi	r2,r2,255
    1300:	108001e0 	cmpeqi	r2,r2,7
    1304:	1000041e 	bne	r2,zero,1318 <main+0x360>
    1308:	01000044 	movi	r4,1
    130c:	000b883a 	mov	r5,zero
    1310:	000d883a 	mov	r6,zero
    1314:	000050c0 	call	50c <digitalWrite_GPIO>

			 if(STATE == 1 || STATE == 3 || STATE == 5)
    1318:	d0a00003 	ldbu	r2,-32768(gp)
    131c:	10803fcc 	andi	r2,r2,255
    1320:	10800060 	cmpeqi	r2,r2,1
    1324:	1000081e 	bne	r2,zero,1348 <main+0x390>
    1328:	d0a00003 	ldbu	r2,-32768(gp)
    132c:	10803fcc 	andi	r2,r2,255
    1330:	108000e0 	cmpeqi	r2,r2,3
    1334:	1000041e 	bne	r2,zero,1348 <main+0x390>
    1338:	d0a00003 	ldbu	r2,-32768(gp)
    133c:	10803fcc 	andi	r2,r2,255
    1340:	10800158 	cmpnei	r2,r2,5
    1344:	10000d1e 	bne	r2,zero,137c <main+0x3c4>
			 {
				 digitalWrite_GPIO(GPIO2_1 ,HIGH,0) ;			//SIGNAL SEND TO MSP430
    1348:	01000084 	movi	r4,2
    134c:	01400044 	movi	r5,1
    1350:	000d883a 	mov	r6,zero
    1354:	000050c0 	call	50c <digitalWrite_GPIO>
				 if(MACHINE(STATE))
    1358:	d0a00003 	ldbu	r2,-32768(gp)
    135c:	10803fcc 	andi	r2,r2,255
    1360:	1009883a 	mov	r4,r2
    1364:	000085c0 	call	85c <MACHINE>
    1368:	10002f26 	beq	r2,zero,1428 <main+0x470>
					 STATE = STATE + 1;
    136c:	d0a00003 	ldbu	r2,-32768(gp)
    1370:	10800044 	addi	r2,r2,1
    1374:	d0a00005 	stb	r2,-32768(gp)
			 if(STATE != 7 ){digitalWrite_GPIO(GPIO2_0, LOW,0);}

			 if(STATE == 1 || STATE == 3 || STATE == 5)
			 {
				 digitalWrite_GPIO(GPIO2_1 ,HIGH,0) ;			//SIGNAL SEND TO MSP430
				 if(MACHINE(STATE))
    1378:	00002b06 	br	1428 <main+0x470>
					 STATE = STATE + 1;
			 }

			 else if(STATE == 2 || STATE == 4 || STATE == 6)
    137c:	d0a00003 	ldbu	r2,-32768(gp)
    1380:	10803fcc 	andi	r2,r2,255
    1384:	108000a0 	cmpeqi	r2,r2,2
    1388:	1000081e 	bne	r2,zero,13ac <main+0x3f4>
    138c:	d0a00003 	ldbu	r2,-32768(gp)
    1390:	10803fcc 	andi	r2,r2,255
    1394:	10800120 	cmpeqi	r2,r2,4
    1398:	1000041e 	bne	r2,zero,13ac <main+0x3f4>
    139c:	d0a00003 	ldbu	r2,-32768(gp)
    13a0:	10803fcc 	andi	r2,r2,255
    13a4:	10800198 	cmpnei	r2,r2,6
    13a8:	10000d1e 	bne	r2,zero,13e0 <main+0x428>
			 {
				 digitalWrite_GPIO(GPIO2_1 ,LOW,0) ;			//SIGNAL SEND TO MSP430
    13ac:	01000084 	movi	r4,2
    13b0:	000b883a 	mov	r5,zero
    13b4:	000d883a 	mov	r6,zero
    13b8:	000050c0 	call	50c <digitalWrite_GPIO>
				 if(MACHINE(STATE))
    13bc:	d0a00003 	ldbu	r2,-32768(gp)
    13c0:	10803fcc 	andi	r2,r2,255
    13c4:	1009883a 	mov	r4,r2
    13c8:	000085c0 	call	85c <MACHINE>
    13cc:	10001626 	beq	r2,zero,1428 <main+0x470>
					 STATE = STATE + 1;
    13d0:	d0a00003 	ldbu	r2,-32768(gp)
    13d4:	10800044 	addi	r2,r2,1
    13d8:	d0a00005 	stb	r2,-32768(gp)
			 }

			 else if(STATE == 2 || STATE == 4 || STATE == 6)
			 {
				 digitalWrite_GPIO(GPIO2_1 ,LOW,0) ;			//SIGNAL SEND TO MSP430
				 if(MACHINE(STATE))
    13dc:	00001206 	br	1428 <main+0x470>
					 STATE = STATE + 1;
			 }

			 else if(STATE == 7 )
    13e0:	d0a00003 	ldbu	r2,-32768(gp)
    13e4:	10803fcc 	andi	r2,r2,255
    13e8:	108001d8 	cmpnei	r2,r2,7
    13ec:	10000e1e 	bne	r2,zero,1428 <main+0x470>
			 {
				 digitalWrite_GPIO(GPIO2_0, HIGH,0) ;			//SIGNAL SEND TO MSP430
    13f0:	01000044 	movi	r4,1
    13f4:	01400044 	movi	r5,1
    13f8:	000d883a 	mov	r6,zero
    13fc:	000050c0 	call	50c <digitalWrite_GPIO>
				 if(MACHINE(STATE))
    1400:	d0a00003 	ldbu	r2,-32768(gp)
    1404:	10803fcc 	andi	r2,r2,255
    1408:	1009883a 	mov	r4,r2
    140c:	000085c0 	call	85c <MACHINE>
    1410:	10000526 	beq	r2,zero,1428 <main+0x470>
					 STATE = STATE + 1;
    1414:	d0a00003 	ldbu	r2,-32768(gp)
    1418:	10800044 	addi	r2,r2,1
    141c:	d0a00005 	stb	r2,-32768(gp)
    1420:	00000106 	br	1428 <main+0x470>
    //DEBUG MSP430=========================================================================END=


//==== MAIN STATE MACHINE ================================================================================================

  while(*SW_switch_ptr != 0x80 && STATE<9)
    1424:	0001883a 	nop
    1428:	00840034 	movhi	r2,4096
    142c:	10801004 	addi	r2,r2,64
    1430:	10800003 	ldbu	r2,0(r2)
    1434:	10803fcc 	andi	r2,r2,255
    1438:	10802020 	cmpeqi	r2,r2,128
    143c:	1000041e 	bne	r2,zero,1450 <main+0x498>
    1440:	d0a00003 	ldbu	r2,-32768(gp)
    1444:	10803fcc 	andi	r2,r2,255
    1448:	10800270 	cmpltui	r2,r2,9
    144c:	103f101e 	bne	r2,zero,1090 <main+0xd8>
		}
	   //=============================================================================STATES =

		else{};
  }
  STATE = 0;
    1450:	d0200005 	stb	zero,-32768(gp)

}
    1454:	003ede06 	br	fd0 <main+0x18>

00001458 <_printf_r>:
    1458:	defffd04 	addi	sp,sp,-12
    145c:	dfc00015 	stw	ra,0(sp)
    1460:	d9800115 	stw	r6,4(sp)
    1464:	d9c00215 	stw	r7,8(sp)
    1468:	280d883a 	mov	r6,r5
    146c:	21400217 	ldw	r5,8(r4)
    1470:	d9c00104 	addi	r7,sp,4
    1474:	00015dc0 	call	15dc <___vfprintf_internal_r>
    1478:	dfc00017 	ldw	ra,0(sp)
    147c:	dec00304 	addi	sp,sp,12
    1480:	f800283a 	ret

00001484 <printf>:
    1484:	defffc04 	addi	sp,sp,-16
    1488:	dfc00015 	stw	ra,0(sp)
    148c:	d9400115 	stw	r5,4(sp)
    1490:	d9800215 	stw	r6,8(sp)
    1494:	d9c00315 	stw	r7,12(sp)
    1498:	00800074 	movhi	r2,1
    149c:	10beb504 	addi	r2,r2,-1324
    14a0:	10800017 	ldw	r2,0(r2)
    14a4:	200b883a 	mov	r5,r4
    14a8:	d9800104 	addi	r6,sp,4
    14ac:	11000217 	ldw	r4,8(r2)
    14b0:	00034580 	call	3458 <__vfprintf_internal>
    14b4:	dfc00017 	ldw	ra,0(sp)
    14b8:	dec00404 	addi	sp,sp,16
    14bc:	f800283a 	ret

000014c0 <_putchar_r>:
    14c0:	21800217 	ldw	r6,8(r4)
    14c4:	0007c941 	jmpi	7c94 <_putc_r>

000014c8 <putchar>:
    14c8:	00800074 	movhi	r2,1
    14cc:	10beb504 	addi	r2,r2,-1324
    14d0:	10800017 	ldw	r2,0(r2)
    14d4:	200b883a 	mov	r5,r4
    14d8:	11800217 	ldw	r6,8(r2)
    14dc:	1009883a 	mov	r4,r2
    14e0:	0007c941 	jmpi	7c94 <_putc_r>

000014e4 <_sprintf_r>:
    14e4:	deffe704 	addi	sp,sp,-100
    14e8:	2807883a 	mov	r3,r5
    14ec:	dfc01715 	stw	ra,92(sp)
    14f0:	d9c01815 	stw	r7,96(sp)
    14f4:	00a00034 	movhi	r2,32768
    14f8:	10bfffc4 	addi	r2,r2,-1
    14fc:	02008204 	movi	r8,520
    1500:	d8800215 	stw	r2,8(sp)
    1504:	d8800515 	stw	r2,20(sp)
    1508:	d80b883a 	mov	r5,sp
    150c:	d9c01804 	addi	r7,sp,96
    1510:	00bfffc4 	movi	r2,-1
    1514:	d8c00015 	stw	r3,0(sp)
    1518:	d8c00415 	stw	r3,16(sp)
    151c:	da00030d 	sth	r8,12(sp)
    1520:	d880038d 	sth	r2,14(sp)
    1524:	00015dc0 	call	15dc <___vfprintf_internal_r>
    1528:	d8c00017 	ldw	r3,0(sp)
    152c:	18000005 	stb	zero,0(r3)
    1530:	dfc01717 	ldw	ra,92(sp)
    1534:	dec01904 	addi	sp,sp,100
    1538:	f800283a 	ret

0000153c <sprintf>:
    153c:	deffe604 	addi	sp,sp,-104
    1540:	2007883a 	mov	r3,r4
    1544:	dfc01715 	stw	ra,92(sp)
    1548:	d9801815 	stw	r6,96(sp)
    154c:	d9c01915 	stw	r7,100(sp)
    1550:	00800074 	movhi	r2,1
    1554:	10beb504 	addi	r2,r2,-1324
    1558:	11000017 	ldw	r4,0(r2)
    155c:	00a00034 	movhi	r2,32768
    1560:	10bfffc4 	addi	r2,r2,-1
    1564:	280d883a 	mov	r6,r5
    1568:	02008204 	movi	r8,520
    156c:	d8800215 	stw	r2,8(sp)
    1570:	d8800515 	stw	r2,20(sp)
    1574:	d80b883a 	mov	r5,sp
    1578:	d9c01804 	addi	r7,sp,96
    157c:	00bfffc4 	movi	r2,-1
    1580:	d8c00015 	stw	r3,0(sp)
    1584:	d8c00415 	stw	r3,16(sp)
    1588:	da00030d 	sth	r8,12(sp)
    158c:	d880038d 	sth	r2,14(sp)
    1590:	00015dc0 	call	15dc <___vfprintf_internal_r>
    1594:	d8c00017 	ldw	r3,0(sp)
    1598:	18000005 	stb	zero,0(r3)
    159c:	dfc01717 	ldw	ra,92(sp)
    15a0:	dec01a04 	addi	sp,sp,104
    15a4:	f800283a 	ret

000015a8 <__sprint_r>:
    15a8:	30800217 	ldw	r2,8(r6)
    15ac:	defffe04 	addi	sp,sp,-8
    15b0:	dc000015 	stw	r16,0(sp)
    15b4:	dfc00115 	stw	ra,4(sp)
    15b8:	3021883a 	mov	r16,r6
    15bc:	10000226 	beq	r2,zero,15c8 <__sprint_r+0x20>
    15c0:	00057580 	call	5758 <__sfvwrite_r>
    15c4:	80000215 	stw	zero,8(r16)
    15c8:	80000115 	stw	zero,4(r16)
    15cc:	dfc00117 	ldw	ra,4(sp)
    15d0:	dc000017 	ldw	r16,0(sp)
    15d4:	dec00204 	addi	sp,sp,8
    15d8:	f800283a 	ret

000015dc <___vfprintf_internal_r>:
    15dc:	defeb904 	addi	sp,sp,-1308
    15e0:	dc013d15 	stw	r16,1268(sp)
    15e4:	d9013015 	stw	r4,1216(sp)
    15e8:	dfc14615 	stw	ra,1304(sp)
    15ec:	df014515 	stw	fp,1300(sp)
    15f0:	ddc14415 	stw	r23,1296(sp)
    15f4:	dd814315 	stw	r22,1292(sp)
    15f8:	dd414215 	stw	r21,1288(sp)
    15fc:	dd014115 	stw	r20,1284(sp)
    1600:	dcc14015 	stw	r19,1280(sp)
    1604:	dc813f15 	stw	r18,1276(sp)
    1608:	dc413e15 	stw	r17,1272(sp)
    160c:	d9412915 	stw	r5,1188(sp)
    1610:	3021883a 	mov	r16,r6
    1614:	d9c12d15 	stw	r7,1204(sp)
    1618:	0005e440 	call	5e44 <_localeconv_r>
    161c:	10800017 	ldw	r2,0(r2)
    1620:	d9013017 	ldw	r4,1216(sp)
    1624:	d8013315 	stw	zero,1228(sp)
    1628:	d8813715 	stw	r2,1244(sp)
    162c:	d8013415 	stw	zero,1232(sp)
    1630:	20000226 	beq	r4,zero,163c <___vfprintf_internal_r+0x60>
    1634:	20800e17 	ldw	r2,56(r4)
    1638:	10014b26 	beq	r2,zero,1b68 <___vfprintf_internal_r+0x58c>
    163c:	d8c12917 	ldw	r3,1188(sp)
    1640:	1880030b 	ldhu	r2,12(r3)
    1644:	10c0020c 	andi	r3,r2,8
    1648:	18ffffcc 	andi	r3,r3,65535
    164c:	18e0001c 	xori	r3,r3,32768
    1650:	18e00004 	addi	r3,r3,-32768
    1654:	1800ed26 	beq	r3,zero,1a0c <___vfprintf_internal_r+0x430>
    1658:	d9012917 	ldw	r4,1188(sp)
    165c:	20c00417 	ldw	r3,16(r4)
    1660:	1800ea26 	beq	r3,zero,1a0c <___vfprintf_internal_r+0x430>
    1664:	1100068c 	andi	r4,r2,26
    1668:	00c00284 	movi	r3,10
    166c:	20c0f026 	beq	r4,r3,1a30 <___vfprintf_internal_r+0x454>
    1670:	d9010dc4 	addi	r4,sp,1079
    1674:	d8810e04 	addi	r2,sp,1080
    1678:	dc413017 	ldw	r17,1216(sp)
    167c:	d8c00404 	addi	r3,sp,16
    1680:	d9012615 	stw	r4,1176(sp)
    1684:	1109c83a 	sub	r4,r2,r4
    1688:	d8812715 	stw	r2,1180(sp)
    168c:	d8c11b15 	stw	r3,1132(sp)
    1690:	d8011d15 	stw	zero,1140(sp)
    1694:	d8011c15 	stw	zero,1136(sp)
    1698:	802b883a 	mov	r21,r16
    169c:	d8013215 	stw	zero,1224(sp)
    16a0:	d8013615 	stw	zero,1240(sp)
    16a4:	d8013515 	stw	zero,1236(sp)
    16a8:	d8012c15 	stw	zero,1200(sp)
    16ac:	1813883a 	mov	r9,r3
    16b0:	d9013915 	stw	r4,1252(sp)
    16b4:	a8800007 	ldb	r2,0(r21)
    16b8:	1002f326 	beq	r2,zero,2288 <___vfprintf_internal_r+0xcac>
    16bc:	00c00944 	movi	r3,37
    16c0:	a825883a 	mov	r18,r21
    16c4:	10c0021e 	bne	r2,r3,16d0 <___vfprintf_internal_r+0xf4>
    16c8:	00001406 	br	171c <___vfprintf_internal_r+0x140>
    16cc:	10c00326 	beq	r2,r3,16dc <___vfprintf_internal_r+0x100>
    16d0:	94800044 	addi	r18,r18,1
    16d4:	90800007 	ldb	r2,0(r18)
    16d8:	103ffc1e 	bne	r2,zero,16cc <___vfprintf_internal_r+0xf0>
    16dc:	9561c83a 	sub	r16,r18,r21
    16e0:	80000e26 	beq	r16,zero,171c <___vfprintf_internal_r+0x140>
    16e4:	da011d17 	ldw	r8,1140(sp)
    16e8:	d8c11c17 	ldw	r3,1136(sp)
    16ec:	4d400015 	stw	r21,0(r9)
    16f0:	4c000115 	stw	r16,4(r9)
    16f4:	4411883a 	add	r8,r8,r16
    16f8:	18c00044 	addi	r3,r3,1
    16fc:	da011d15 	stw	r8,1140(sp)
    1700:	d8c11c15 	stw	r3,1136(sp)
    1704:	008001c4 	movi	r2,7
    1708:	10c11016 	blt	r2,r3,1b4c <___vfprintf_internal_r+0x570>
    170c:	4a400204 	addi	r9,r9,8
    1710:	d8812c17 	ldw	r2,1200(sp)
    1714:	1405883a 	add	r2,r2,r16
    1718:	d8812c15 	stw	r2,1200(sp)
    171c:	90800007 	ldb	r2,0(r18)
    1720:	1000ee26 	beq	r2,zero,1adc <___vfprintf_internal_r+0x500>
    1724:	95400044 	addi	r21,r18,1
    1728:	94800047 	ldb	r18,1(r18)
    172c:	073fffc4 	movi	fp,-1
    1730:	e007883a 	mov	r3,fp
    1734:	d8012585 	stb	zero,1174(sp)
    1738:	d8012e15 	stw	zero,1208(sp)
    173c:	0021883a 	mov	r16,zero
    1740:	05001604 	movi	r20,88
    1744:	04c00244 	movi	r19,9
    1748:	4839883a 	mov	fp,r9
    174c:	ad400044 	addi	r21,r21,1
    1750:	90bff804 	addi	r2,r18,-32
    1754:	a080462e 	bgeu	r20,r2,1870 <___vfprintf_internal_r+0x294>
    1758:	e013883a 	mov	r9,fp
    175c:	9000df26 	beq	r18,zero,1adc <___vfprintf_internal_r+0x500>
    1760:	00c00044 	movi	r3,1
    1764:	d8c12815 	stw	r3,1184(sp)
    1768:	dc810405 	stb	r18,1040(sp)
    176c:	d8012585 	stb	zero,1174(sp)
    1770:	d8c12b15 	stw	r3,1196(sp)
    1774:	dcc10404 	addi	r19,sp,1040
    1778:	d8013115 	stw	zero,1220(sp)
    177c:	80c0008c 	andi	r3,r16,2
    1780:	d8c12a15 	stw	r3,1192(sp)
    1784:	18000326 	beq	r3,zero,1794 <___vfprintf_internal_r+0x1b8>
    1788:	d8c12817 	ldw	r3,1184(sp)
    178c:	18c00084 	addi	r3,r3,2
    1790:	d8c12815 	stw	r3,1184(sp)
    1794:	80c0210c 	andi	r3,r16,132
    1798:	d8c12f15 	stw	r3,1212(sp)
    179c:	1802251e 	bne	r3,zero,2034 <___vfprintf_internal_r+0xa58>
    17a0:	d9012e17 	ldw	r4,1208(sp)
    17a4:	d8c12817 	ldw	r3,1184(sp)
    17a8:	20edc83a 	sub	r22,r4,r3
    17ac:	0582210e 	bge	zero,r22,2034 <___vfprintf_internal_r+0xa58>
    17b0:	02800404 	movi	r10,16
    17b4:	da011d17 	ldw	r8,1140(sp)
    17b8:	d8c11c17 	ldw	r3,1136(sp)
    17bc:	05c00074 	movhi	r23,1
    17c0:	bdf68d84 	addi	r23,r23,-9674
    17c4:	5580200e 	bge	r10,r22,1848 <___vfprintf_internal_r+0x26c>
    17c8:	dc813815 	stw	r18,1248(sp)
    17cc:	5039883a 	mov	fp,r10
    17d0:	b825883a 	mov	r18,r23
    17d4:	050001c4 	movi	r20,7
    17d8:	b02f883a 	mov	r23,r22
    17dc:	802d883a 	mov	r22,r16
    17e0:	dc012917 	ldw	r16,1188(sp)
    17e4:	00000306 	br	17f4 <___vfprintf_internal_r+0x218>
    17e8:	bdfffc04 	addi	r23,r23,-16
    17ec:	4a400204 	addi	r9,r9,8
    17f0:	e5c0110e 	bge	fp,r23,1838 <___vfprintf_internal_r+0x25c>
    17f4:	4c800015 	stw	r18,0(r9)
    17f8:	4f000115 	stw	fp,4(r9)
    17fc:	42000404 	addi	r8,r8,16
    1800:	18c00044 	addi	r3,r3,1
    1804:	da011d15 	stw	r8,1140(sp)
    1808:	d8c11c15 	stw	r3,1136(sp)
    180c:	a0fff60e 	bge	r20,r3,17e8 <___vfprintf_internal_r+0x20c>
    1810:	8809883a 	mov	r4,r17
    1814:	800b883a 	mov	r5,r16
    1818:	d9811b04 	addi	r6,sp,1132
    181c:	00015a80 	call	15a8 <__sprint_r>
    1820:	1000b41e 	bne	r2,zero,1af4 <___vfprintf_internal_r+0x518>
    1824:	bdfffc04 	addi	r23,r23,-16
    1828:	da011d17 	ldw	r8,1140(sp)
    182c:	d8c11c17 	ldw	r3,1136(sp)
    1830:	da400404 	addi	r9,sp,16
    1834:	e5ffef16 	blt	fp,r23,17f4 <___vfprintf_internal_r+0x218>
    1838:	b021883a 	mov	r16,r22
    183c:	b82d883a 	mov	r22,r23
    1840:	902f883a 	mov	r23,r18
    1844:	dc813817 	ldw	r18,1248(sp)
    1848:	4dc00015 	stw	r23,0(r9)
    184c:	4d800115 	stw	r22,4(r9)
    1850:	4591883a 	add	r8,r8,r22
    1854:	18c00044 	addi	r3,r3,1
    1858:	da011d15 	stw	r8,1140(sp)
    185c:	d8c11c15 	stw	r3,1136(sp)
    1860:	008001c4 	movi	r2,7
    1864:	10c3fe16 	blt	r2,r3,2860 <___vfprintf_internal_r+0x1284>
    1868:	4a400204 	addi	r9,r9,8
    186c:	0001f306 	br	203c <___vfprintf_internal_r+0xa60>
    1870:	1085883a 	add	r2,r2,r2
    1874:	1085883a 	add	r2,r2,r2
    1878:	01000034 	movhi	r4,0
    187c:	21062304 	addi	r4,r4,6284
    1880:	1105883a 	add	r2,r2,r4
    1884:	10800017 	ldw	r2,0(r2)
    1888:	1000683a 	jmp	r2
    188c:	00001f68 	cmpgeui	zero,zero,125
    1890:	00001758 	cmpnei	zero,zero,93
    1894:	00001758 	cmpnei	zero,zero,93
    1898:	00001f80 	call	1f8 <DELAY_CYCLES>
    189c:	00001758 	cmpnei	zero,zero,93
    18a0:	00001758 	cmpnei	zero,zero,93
    18a4:	00001758 	cmpnei	zero,zero,93
    18a8:	00001758 	cmpnei	zero,zero,93
    18ac:	00001758 	cmpnei	zero,zero,93
    18b0:	00001758 	cmpnei	zero,zero,93
    18b4:	00001e38 	rdprs	zero,zero,120
    18b8:	00001fcc 	andi	zero,zero,127
    18bc:	00001758 	cmpnei	zero,zero,93
    18c0:	00001a00 	call	1a0 <alt_irq_handler+0xb4>
    18c4:	00001da0 	cmpeqi	zero,zero,118
    18c8:	00001758 	cmpnei	zero,zero,93
    18cc:	00001f8c 	andi	zero,zero,126
    18d0:	00001f98 	cmpnei	zero,zero,126
    18d4:	00001f98 	cmpnei	zero,zero,126
    18d8:	00001f98 	cmpnei	zero,zero,126
    18dc:	00001f98 	cmpnei	zero,zero,126
    18e0:	00001f98 	cmpnei	zero,zero,126
    18e4:	00001f98 	cmpnei	zero,zero,126
    18e8:	00001f98 	cmpnei	zero,zero,126
    18ec:	00001f98 	cmpnei	zero,zero,126
    18f0:	00001f98 	cmpnei	zero,zero,126
    18f4:	00001758 	cmpnei	zero,zero,93
    18f8:	00001758 	cmpnei	zero,zero,93
    18fc:	00001758 	cmpnei	zero,zero,93
    1900:	00001758 	cmpnei	zero,zero,93
    1904:	00001758 	cmpnei	zero,zero,93
    1908:	00001758 	cmpnei	zero,zero,93
    190c:	00001758 	cmpnei	zero,zero,93
    1910:	00001758 	cmpnei	zero,zero,93
    1914:	00001758 	cmpnei	zero,zero,93
    1918:	00001758 	cmpnei	zero,zero,93
    191c:	00001b70 	cmpltui	zero,zero,109
    1920:	00001c30 	cmpltui	zero,zero,112
    1924:	00001758 	cmpnei	zero,zero,93
    1928:	00001c30 	cmpltui	zero,zero,112
    192c:	00001758 	cmpnei	zero,zero,93
    1930:	00001758 	cmpnei	zero,zero,93
    1934:	00001758 	cmpnei	zero,zero,93
    1938:	00001758 	cmpnei	zero,zero,93
    193c:	00001cc4 	movi	zero,115
    1940:	00001758 	cmpnei	zero,zero,93
    1944:	00001758 	cmpnei	zero,zero,93
    1948:	00001cd0 	cmplti	zero,zero,115
    194c:	00001758 	cmpnei	zero,zero,93
    1950:	00001758 	cmpnei	zero,zero,93
    1954:	00001758 	cmpnei	zero,zero,93
    1958:	00001758 	cmpnei	zero,zero,93
    195c:	00001758 	cmpnei	zero,zero,93
    1960:	00001d08 	cmpgei	zero,zero,116
    1964:	00001758 	cmpnei	zero,zero,93
    1968:	00001758 	cmpnei	zero,zero,93
    196c:	00001d44 	movi	zero,117
    1970:	00001758 	cmpnei	zero,zero,93
    1974:	00001758 	cmpnei	zero,zero,93
    1978:	00001758 	cmpnei	zero,zero,93
    197c:	00001758 	cmpnei	zero,zero,93
    1980:	00001758 	cmpnei	zero,zero,93
    1984:	00001758 	cmpnei	zero,zero,93
    1988:	00001758 	cmpnei	zero,zero,93
    198c:	00001758 	cmpnei	zero,zero,93
    1990:	00001758 	cmpnei	zero,zero,93
    1994:	00001758 	cmpnei	zero,zero,93
    1998:	00001fdc 	xori	zero,zero,127
    199c:	00002010 	cmplti	zero,zero,128
    19a0:	00001c30 	cmpltui	zero,zero,112
    19a4:	00001c30 	cmpltui	zero,zero,112
    19a8:	00001c30 	cmpltui	zero,zero,112
    19ac:	00001f5c 	xori	zero,zero,125
    19b0:	00002010 	cmplti	zero,zero,128
    19b4:	00001758 	cmpnei	zero,zero,93
    19b8:	00001758 	cmpnei	zero,zero,93
    19bc:	00001de8 	cmpgeui	zero,zero,119
    19c0:	00001758 	cmpnei	zero,zero,93
    19c4:	00001e00 	call	1e0 <_start+0x24>
    19c8:	0000201c 	xori	zero,zero,128
    19cc:	00001e60 	cmpeqi	zero,zero,121
    19d0:	00001eb0 	cmpltui	zero,zero,122
    19d4:	00001758 	cmpnei	zero,zero,93
    19d8:	00001ebc 	xorhi	zero,zero,122
    19dc:	00001758 	cmpnei	zero,zero,93
    19e0:	00002028 	cmpgeui	zero,zero,128
    19e4:	00001758 	cmpnei	zero,zero,93
    19e8:	00001758 	cmpnei	zero,zero,93
    19ec:	00001f20 	cmpeqi	zero,zero,124
    19f0:	d9012e17 	ldw	r4,1208(sp)
    19f4:	d8812d15 	stw	r2,1204(sp)
    19f8:	0109c83a 	sub	r4,zero,r4
    19fc:	d9012e15 	stw	r4,1208(sp)
    1a00:	84000114 	ori	r16,r16,4
    1a04:	ac800007 	ldb	r18,0(r21)
    1a08:	003f5006 	br	174c <___vfprintf_internal_r+0x170>
    1a0c:	d9013017 	ldw	r4,1216(sp)
    1a10:	d9412917 	ldw	r5,1188(sp)
    1a14:	000347c0 	call	347c <__swsetup_r>
    1a18:	10003d1e 	bne	r2,zero,1b10 <___vfprintf_internal_r+0x534>
    1a1c:	d8c12917 	ldw	r3,1188(sp)
    1a20:	1880030b 	ldhu	r2,12(r3)
    1a24:	00c00284 	movi	r3,10
    1a28:	1100068c 	andi	r4,r2,26
    1a2c:	20ff101e 	bne	r4,r3,1670 <___vfprintf_internal_r+0x94>
    1a30:	d9012917 	ldw	r4,1188(sp)
    1a34:	20c0038b 	ldhu	r3,14(r4)
    1a38:	193fffcc 	andi	r4,r3,65535
    1a3c:	2120001c 	xori	r4,r4,32768
    1a40:	21200004 	addi	r4,r4,-32768
    1a44:	203f0a16 	blt	r4,zero,1670 <___vfprintf_internal_r+0x94>
    1a48:	d9012917 	ldw	r4,1188(sp)
    1a4c:	d9c12d17 	ldw	r7,1204(sp)
    1a50:	10bfff4c 	andi	r2,r2,65533
    1a54:	22800717 	ldw	r10,28(r4)
    1a58:	22400917 	ldw	r9,36(r4)
    1a5c:	d9013017 	ldw	r4,1216(sp)
    1a60:	02010004 	movi	r8,1024
    1a64:	d881070d 	sth	r2,1052(sp)
    1a68:	d9410404 	addi	r5,sp,1040
    1a6c:	d8800404 	addi	r2,sp,16
    1a70:	800d883a 	mov	r6,r16
    1a74:	d8c1078d 	sth	r3,1054(sp)
    1a78:	da810b15 	stw	r10,1068(sp)
    1a7c:	da410d15 	stw	r9,1076(sp)
    1a80:	d8810415 	stw	r2,1040(sp)
    1a84:	d8810815 	stw	r2,1056(sp)
    1a88:	da010615 	stw	r8,1048(sp)
    1a8c:	da010915 	stw	r8,1060(sp)
    1a90:	d8010a15 	stw	zero,1064(sp)
    1a94:	00015dc0 	call	15dc <___vfprintf_internal_r>
    1a98:	d8812c15 	stw	r2,1200(sp)
    1a9c:	10000416 	blt	r2,zero,1ab0 <___vfprintf_internal_r+0x4d4>
    1aa0:	d9013017 	ldw	r4,1216(sp)
    1aa4:	d9410404 	addi	r5,sp,1040
    1aa8:	0004e480 	call	4e48 <_fflush_r>
    1aac:	1006501e 	bne	r2,zero,33f0 <___vfprintf_internal_r+0x1e14>
    1ab0:	d881070b 	ldhu	r2,1052(sp)
    1ab4:	1080100c 	andi	r2,r2,64
    1ab8:	10bfffcc 	andi	r2,r2,65535
    1abc:	10a0001c 	xori	r2,r2,32768
    1ac0:	10a00004 	addi	r2,r2,-32768
    1ac4:	10001426 	beq	r2,zero,1b18 <___vfprintf_internal_r+0x53c>
    1ac8:	d8c12917 	ldw	r3,1188(sp)
    1acc:	1880030b 	ldhu	r2,12(r3)
    1ad0:	10801014 	ori	r2,r2,64
    1ad4:	1880030d 	sth	r2,12(r3)
    1ad8:	00000f06 	br	1b18 <___vfprintf_internal_r+0x53c>
    1adc:	d8811d17 	ldw	r2,1140(sp)
    1ae0:	10000426 	beq	r2,zero,1af4 <___vfprintf_internal_r+0x518>
    1ae4:	d9013017 	ldw	r4,1216(sp)
    1ae8:	d9412917 	ldw	r5,1188(sp)
    1aec:	d9811b04 	addi	r6,sp,1132
    1af0:	00015a80 	call	15a8 <__sprint_r>
    1af4:	d8c12917 	ldw	r3,1188(sp)
    1af8:	1880030b 	ldhu	r2,12(r3)
    1afc:	1080100c 	andi	r2,r2,64
    1b00:	10bfffcc 	andi	r2,r2,65535
    1b04:	10a0001c 	xori	r2,r2,32768
    1b08:	10a00004 	addi	r2,r2,-32768
    1b0c:	10000226 	beq	r2,zero,1b18 <___vfprintf_internal_r+0x53c>
    1b10:	00bfffc4 	movi	r2,-1
    1b14:	d8812c15 	stw	r2,1200(sp)
    1b18:	d8812c17 	ldw	r2,1200(sp)
    1b1c:	dfc14617 	ldw	ra,1304(sp)
    1b20:	df014517 	ldw	fp,1300(sp)
    1b24:	ddc14417 	ldw	r23,1296(sp)
    1b28:	dd814317 	ldw	r22,1292(sp)
    1b2c:	dd414217 	ldw	r21,1288(sp)
    1b30:	dd014117 	ldw	r20,1284(sp)
    1b34:	dcc14017 	ldw	r19,1280(sp)
    1b38:	dc813f17 	ldw	r18,1276(sp)
    1b3c:	dc413e17 	ldw	r17,1272(sp)
    1b40:	dc013d17 	ldw	r16,1268(sp)
    1b44:	dec14704 	addi	sp,sp,1308
    1b48:	f800283a 	ret
    1b4c:	d9412917 	ldw	r5,1188(sp)
    1b50:	8809883a 	mov	r4,r17
    1b54:	d9811b04 	addi	r6,sp,1132
    1b58:	00015a80 	call	15a8 <__sprint_r>
    1b5c:	103fe51e 	bne	r2,zero,1af4 <___vfprintf_internal_r+0x518>
    1b60:	da400404 	addi	r9,sp,16
    1b64:	003eea06 	br	1710 <___vfprintf_internal_r+0x134>
    1b68:	00051040 	call	5104 <__sinit>
    1b6c:	003eb306 	br	163c <___vfprintf_internal_r+0x60>
    1b70:	e013883a 	mov	r9,fp
    1b74:	84000414 	ori	r16,r16,16
    1b78:	1839883a 	mov	fp,r3
    1b7c:	8080080c 	andi	r2,r16,32
    1b80:	10034426 	beq	r2,zero,2894 <___vfprintf_internal_r+0x12b8>
    1b84:	d8c12d17 	ldw	r3,1204(sp)
    1b88:	18800117 	ldw	r2,4(r3)
    1b8c:	1dc00017 	ldw	r23,0(r3)
    1b90:	18c00204 	addi	r3,r3,8
    1b94:	d8c12d15 	stw	r3,1204(sp)
    1b98:	102d883a 	mov	r22,r2
    1b9c:	1003020e 	bge	r2,zero,27a8 <___vfprintf_internal_r+0x11cc>
    1ba0:	05efc83a 	sub	r23,zero,r23
    1ba4:	b804c03a 	cmpne	r2,r23,zero
    1ba8:	05adc83a 	sub	r22,zero,r22
    1bac:	b0adc83a 	sub	r22,r22,r2
    1bb0:	00800b44 	movi	r2,45
    1bb4:	d8812585 	stb	r2,1174(sp)
    1bb8:	00c00044 	movi	r3,1
    1bbc:	bd84b03a 	or	r2,r23,r22
    1bc0:	e0000216 	blt	fp,zero,1bcc <___vfprintf_internal_r+0x5f0>
    1bc4:	013fdfc4 	movi	r4,-129
    1bc8:	8120703a 	and	r16,r16,r4
    1bcc:	1001cc1e 	bne	r2,zero,2300 <___vfprintf_internal_r+0xd24>
    1bd0:	e001cb1e 	bne	fp,zero,2300 <___vfprintf_internal_r+0xd24>
    1bd4:	18c03fcc 	andi	r3,r3,255
    1bd8:	1802ca1e 	bne	r3,zero,2704 <___vfprintf_internal_r+0x1128>
    1bdc:	8080004c 	andi	r2,r16,1
    1be0:	1002c826 	beq	r2,zero,2704 <___vfprintf_internal_r+0x1128>
    1be4:	d8c13917 	ldw	r3,1252(sp)
    1be8:	00800c04 	movi	r2,48
    1bec:	d8810dc5 	stb	r2,1079(sp)
    1bf0:	d8c12b15 	stw	r3,1196(sp)
    1bf4:	dcc10dc4 	addi	r19,sp,1079
    1bf8:	d8812b17 	ldw	r2,1196(sp)
    1bfc:	d8812815 	stw	r2,1184(sp)
    1c00:	1700010e 	bge	r2,fp,1c08 <___vfprintf_internal_r+0x62c>
    1c04:	df012815 	stw	fp,1184(sp)
    1c08:	d8812583 	ldbu	r2,1174(sp)
    1c0c:	df013115 	stw	fp,1220(sp)
    1c10:	10803fcc 	andi	r2,r2,255
    1c14:	1080201c 	xori	r2,r2,128
    1c18:	10bfe004 	addi	r2,r2,-128
    1c1c:	103ed726 	beq	r2,zero,177c <___vfprintf_internal_r+0x1a0>
    1c20:	d8c12817 	ldw	r3,1184(sp)
    1c24:	18c00044 	addi	r3,r3,1
    1c28:	d8c12815 	stw	r3,1184(sp)
    1c2c:	003ed306 	br	177c <___vfprintf_internal_r+0x1a0>
    1c30:	8080020c 	andi	r2,r16,8
    1c34:	e013883a 	mov	r9,fp
    1c38:	1839883a 	mov	fp,r3
    1c3c:	1003a626 	beq	r2,zero,2ad8 <___vfprintf_internal_r+0x14fc>
    1c40:	d9012d17 	ldw	r4,1204(sp)
    1c44:	25800017 	ldw	r22,0(r4)
    1c48:	25000117 	ldw	r20,4(r4)
    1c4c:	21000204 	addi	r4,r4,8
    1c50:	d9012d15 	stw	r4,1204(sp)
    1c54:	dd813315 	stw	r22,1228(sp)
    1c58:	dd013415 	stw	r20,1232(sp)
    1c5c:	b009883a 	mov	r4,r22
    1c60:	a00b883a 	mov	r5,r20
    1c64:	da413c15 	stw	r9,1264(sp)
    1c68:	000843c0 	call	843c <__isinfd>
    1c6c:	da413c17 	ldw	r9,1264(sp)
    1c70:	b009883a 	mov	r4,r22
    1c74:	a00b883a 	mov	r5,r20
    1c78:	10041d26 	beq	r2,zero,2cf0 <___vfprintf_internal_r+0x1714>
    1c7c:	000d883a 	mov	r6,zero
    1c80:	000f883a 	mov	r7,zero
    1c84:	000a3f40 	call	a3f4 <__ltdf2>
    1c88:	da413c17 	ldw	r9,1264(sp)
    1c8c:	1004da16 	blt	r2,zero,2ff8 <___vfprintf_internal_r+0x1a1c>
    1c90:	d8812583 	ldbu	r2,1174(sp)
    1c94:	00c011c4 	movi	r3,71
    1c98:	1c83d116 	blt	r3,r18,2be0 <___vfprintf_internal_r+0x1604>
    1c9c:	04c00074 	movhi	r19,1
    1ca0:	9cf67d04 	addi	r19,r19,-9740
    1ca4:	00c000c4 	movi	r3,3
    1ca8:	d8c12815 	stw	r3,1184(sp)
    1cac:	00ffdfc4 	movi	r3,-129
    1cb0:	80e0703a 	and	r16,r16,r3
    1cb4:	d8c12817 	ldw	r3,1184(sp)
    1cb8:	d8013115 	stw	zero,1220(sp)
    1cbc:	d8c12b15 	stw	r3,1196(sp)
    1cc0:	003fd306 	br	1c10 <___vfprintf_internal_r+0x634>
    1cc4:	84000214 	ori	r16,r16,8
    1cc8:	ac800007 	ldb	r18,0(r21)
    1ccc:	003e9f06 	br	174c <___vfprintf_internal_r+0x170>
    1cd0:	e013883a 	mov	r9,fp
    1cd4:	84000414 	ori	r16,r16,16
    1cd8:	1839883a 	mov	fp,r3
    1cdc:	8080080c 	andi	r2,r16,32
    1ce0:	10031d26 	beq	r2,zero,2958 <___vfprintf_internal_r+0x137c>
    1ce4:	d8812d17 	ldw	r2,1204(sp)
    1ce8:	0007883a 	mov	r3,zero
    1cec:	15c00017 	ldw	r23,0(r2)
    1cf0:	15800117 	ldw	r22,4(r2)
    1cf4:	10800204 	addi	r2,r2,8
    1cf8:	d8812d15 	stw	r2,1204(sp)
    1cfc:	d8012585 	stb	zero,1174(sp)
    1d00:	bd84b03a 	or	r2,r23,r22
    1d04:	003fae06 	br	1bc0 <___vfprintf_internal_r+0x5e4>
    1d08:	e013883a 	mov	r9,fp
    1d0c:	84000414 	ori	r16,r16,16
    1d10:	1839883a 	mov	fp,r3
    1d14:	8080080c 	andi	r2,r16,32
    1d18:	1002e726 	beq	r2,zero,28b8 <___vfprintf_internal_r+0x12dc>
    1d1c:	d8c12d17 	ldw	r3,1204(sp)
    1d20:	d9012d17 	ldw	r4,1204(sp)
    1d24:	1dc00017 	ldw	r23,0(r3)
    1d28:	1d800117 	ldw	r22,4(r3)
    1d2c:	21000204 	addi	r4,r4,8
    1d30:	00c00044 	movi	r3,1
    1d34:	d9012d15 	stw	r4,1204(sp)
    1d38:	bd84b03a 	or	r2,r23,r22
    1d3c:	d8012585 	stb	zero,1174(sp)
    1d40:	003f9f06 	br	1bc0 <___vfprintf_internal_r+0x5e4>
    1d44:	e013883a 	mov	r9,fp
    1d48:	1839883a 	mov	fp,r3
    1d4c:	00c00074 	movhi	r3,1
    1d50:	18f68104 	addi	r3,r3,-9724
    1d54:	d8c13615 	stw	r3,1240(sp)
    1d58:	8080080c 	andi	r2,r16,32
    1d5c:	10007726 	beq	r2,zero,1f3c <___vfprintf_internal_r+0x960>
    1d60:	d9012d17 	ldw	r4,1204(sp)
    1d64:	25c00017 	ldw	r23,0(r4)
    1d68:	25800117 	ldw	r22,4(r4)
    1d6c:	21000204 	addi	r4,r4,8
    1d70:	d9012d15 	stw	r4,1204(sp)
    1d74:	8080004c 	andi	r2,r16,1
    1d78:	1002c226 	beq	r2,zero,2884 <___vfprintf_internal_r+0x12a8>
    1d7c:	bd84b03a 	or	r2,r23,r22
    1d80:	10035d26 	beq	r2,zero,2af8 <___vfprintf_internal_r+0x151c>
    1d84:	00c00c04 	movi	r3,48
    1d88:	d8c12505 	stb	r3,1172(sp)
    1d8c:	dc812545 	stb	r18,1173(sp)
    1d90:	84000094 	ori	r16,r16,2
    1d94:	00c00084 	movi	r3,2
    1d98:	d8012585 	stb	zero,1174(sp)
    1d9c:	003f8806 	br	1bc0 <___vfprintf_internal_r+0x5e4>
    1da0:	ac800007 	ldb	r18,0(r21)
    1da4:	00c00a84 	movi	r3,42
    1da8:	adc00044 	addi	r23,r21,1
    1dac:	90c57526 	beq	r18,r3,3384 <___vfprintf_internal_r+0x1da8>
    1db0:	95bff404 	addi	r22,r18,-48
    1db4:	0009883a 	mov	r4,zero
    1db8:	9d84ff36 	bltu	r19,r22,31b8 <___vfprintf_internal_r+0x1bdc>
    1dbc:	01400284 	movi	r5,10
    1dc0:	000a8440 	call	a844 <__mulsi3>
    1dc4:	bc800007 	ldb	r18,0(r23)
    1dc8:	b089883a 	add	r4,r22,r2
    1dcc:	bdc00044 	addi	r23,r23,1
    1dd0:	95bff404 	addi	r22,r18,-48
    1dd4:	9dbff92e 	bgeu	r19,r22,1dbc <___vfprintf_internal_r+0x7e0>
    1dd8:	2007883a 	mov	r3,r4
    1ddc:	20044316 	blt	r4,zero,2eec <___vfprintf_internal_r+0x1910>
    1de0:	b82b883a 	mov	r21,r23
    1de4:	003e5a06 	br	1750 <___vfprintf_internal_r+0x174>
    1de8:	ac800007 	ldb	r18,0(r21)
    1dec:	01001b04 	movi	r4,108
    1df0:	a805883a 	mov	r2,r21
    1df4:	91045526 	beq	r18,r4,2f4c <___vfprintf_internal_r+0x1970>
    1df8:	84000414 	ori	r16,r16,16
    1dfc:	003e5306 	br	174c <___vfprintf_internal_r+0x170>
    1e00:	8080080c 	andi	r2,r16,32
    1e04:	e013883a 	mov	r9,fp
    1e08:	10034026 	beq	r2,zero,2b0c <___vfprintf_internal_r+0x1530>
    1e0c:	d9012d17 	ldw	r4,1204(sp)
    1e10:	20800017 	ldw	r2,0(r4)
    1e14:	d9012c17 	ldw	r4,1200(sp)
    1e18:	2007d7fa 	srai	r3,r4,31
    1e1c:	d9012d17 	ldw	r4,1204(sp)
    1e20:	10c00115 	stw	r3,4(r2)
    1e24:	21000104 	addi	r4,r4,4
    1e28:	d9012d15 	stw	r4,1204(sp)
    1e2c:	d9012c17 	ldw	r4,1200(sp)
    1e30:	11000015 	stw	r4,0(r2)
    1e34:	003e1f06 	br	16b4 <___vfprintf_internal_r+0xd8>
    1e38:	d9012d17 	ldw	r4,1204(sp)
    1e3c:	21000017 	ldw	r4,0(r4)
    1e40:	d9012e15 	stw	r4,1208(sp)
    1e44:	d9012d17 	ldw	r4,1204(sp)
    1e48:	20800104 	addi	r2,r4,4
    1e4c:	d9012e17 	ldw	r4,1208(sp)
    1e50:	203ee716 	blt	r4,zero,19f0 <___vfprintf_internal_r+0x414>
    1e54:	d8812d15 	stw	r2,1204(sp)
    1e58:	ac800007 	ldb	r18,0(r21)
    1e5c:	003e3b06 	br	174c <___vfprintf_internal_r+0x170>
    1e60:	e013883a 	mov	r9,fp
    1e64:	1839883a 	mov	fp,r3
    1e68:	d8c12d17 	ldw	r3,1204(sp)
    1e6c:	00800c04 	movi	r2,48
    1e70:	01000074 	movhi	r4,1
    1e74:	21368604 	addi	r4,r4,-9704
    1e78:	1dc00017 	ldw	r23,0(r3)
    1e7c:	18c00104 	addi	r3,r3,4
    1e80:	d8812505 	stb	r2,1172(sp)
    1e84:	00801e04 	movi	r2,120
    1e88:	d8812545 	stb	r2,1173(sp)
    1e8c:	d8c12d15 	stw	r3,1204(sp)
    1e90:	002d883a 	mov	r22,zero
    1e94:	84000094 	ori	r16,r16,2
    1e98:	d9013615 	stw	r4,1240(sp)
    1e9c:	00c00084 	movi	r3,2
    1ea0:	04801e04 	movi	r18,120
    1ea4:	b805883a 	mov	r2,r23
    1ea8:	d8012585 	stb	zero,1174(sp)
    1eac:	003f4406 	br	1bc0 <___vfprintf_internal_r+0x5e4>
    1eb0:	84000814 	ori	r16,r16,32
    1eb4:	ac800007 	ldb	r18,0(r21)
    1eb8:	003e2406 	br	174c <___vfprintf_internal_r+0x170>
    1ebc:	d8812d17 	ldw	r2,1204(sp)
    1ec0:	d8012585 	stb	zero,1174(sp)
    1ec4:	e013883a 	mov	r9,fp
    1ec8:	14c00017 	ldw	r19,0(r2)
    1ecc:	1839883a 	mov	fp,r3
    1ed0:	15c00104 	addi	r23,r2,4
    1ed4:	98045526 	beq	r19,zero,302c <___vfprintf_internal_r+0x1a50>
    1ed8:	9809883a 	mov	r4,r19
    1edc:	18043116 	blt	r3,zero,2fa4 <___vfprintf_internal_r+0x19c8>
    1ee0:	000b883a 	mov	r5,zero
    1ee4:	180d883a 	mov	r6,r3
    1ee8:	da413c15 	stw	r9,1264(sp)
    1eec:	00067a40 	call	67a4 <memchr>
    1ef0:	da413c17 	ldw	r9,1264(sp)
    1ef4:	10047a26 	beq	r2,zero,30e0 <___vfprintf_internal_r+0x1b04>
    1ef8:	14c5c83a 	sub	r2,r2,r19
    1efc:	d8812b15 	stw	r2,1196(sp)
    1f00:	e083d40e 	bge	fp,r2,2e54 <___vfprintf_internal_r+0x1878>
    1f04:	df012815 	stw	fp,1184(sp)
    1f08:	e004e416 	blt	fp,zero,329c <___vfprintf_internal_r+0x1cc0>
    1f0c:	d8812583 	ldbu	r2,1174(sp)
    1f10:	df012b15 	stw	fp,1196(sp)
    1f14:	ddc12d15 	stw	r23,1204(sp)
    1f18:	d8013115 	stw	zero,1220(sp)
    1f1c:	003f3c06 	br	1c10 <___vfprintf_internal_r+0x634>
    1f20:	00800074 	movhi	r2,1
    1f24:	10b68604 	addi	r2,r2,-9704
    1f28:	d8813615 	stw	r2,1240(sp)
    1f2c:	8080080c 	andi	r2,r16,32
    1f30:	e013883a 	mov	r9,fp
    1f34:	1839883a 	mov	fp,r3
    1f38:	103f891e 	bne	r2,zero,1d60 <___vfprintf_internal_r+0x784>
    1f3c:	8080040c 	andi	r2,r16,16
    1f40:	1002c326 	beq	r2,zero,2a50 <___vfprintf_internal_r+0x1474>
    1f44:	d8812d17 	ldw	r2,1204(sp)
    1f48:	002d883a 	mov	r22,zero
    1f4c:	15c00017 	ldw	r23,0(r2)
    1f50:	10800104 	addi	r2,r2,4
    1f54:	d8812d15 	stw	r2,1204(sp)
    1f58:	003f8606 	br	1d74 <___vfprintf_internal_r+0x798>
    1f5c:	84001014 	ori	r16,r16,64
    1f60:	ac800007 	ldb	r18,0(r21)
    1f64:	003df906 	br	174c <___vfprintf_internal_r+0x170>
    1f68:	d8812587 	ldb	r2,1174(sp)
    1f6c:	1002e51e 	bne	r2,zero,2b04 <___vfprintf_internal_r+0x1528>
    1f70:	00800804 	movi	r2,32
    1f74:	d8812585 	stb	r2,1174(sp)
    1f78:	ac800007 	ldb	r18,0(r21)
    1f7c:	003df306 	br	174c <___vfprintf_internal_r+0x170>
    1f80:	84000054 	ori	r16,r16,1
    1f84:	ac800007 	ldb	r18,0(r21)
    1f88:	003df006 	br	174c <___vfprintf_internal_r+0x170>
    1f8c:	84002014 	ori	r16,r16,128
    1f90:	ac800007 	ldb	r18,0(r21)
    1f94:	003ded06 	br	174c <___vfprintf_internal_r+0x170>
    1f98:	0009883a 	mov	r4,zero
    1f9c:	95bff404 	addi	r22,r18,-48
    1fa0:	182f883a 	mov	r23,r3
    1fa4:	01400284 	movi	r5,10
    1fa8:	000a8440 	call	a844 <__mulsi3>
    1fac:	ac800007 	ldb	r18,0(r21)
    1fb0:	1589883a 	add	r4,r2,r22
    1fb4:	ad400044 	addi	r21,r21,1
    1fb8:	95bff404 	addi	r22,r18,-48
    1fbc:	9dbff92e 	bgeu	r19,r22,1fa4 <___vfprintf_internal_r+0x9c8>
    1fc0:	b807883a 	mov	r3,r23
    1fc4:	d9012e15 	stw	r4,1208(sp)
    1fc8:	003de106 	br	1750 <___vfprintf_internal_r+0x174>
    1fcc:	00800ac4 	movi	r2,43
    1fd0:	d8812585 	stb	r2,1174(sp)
    1fd4:	ac800007 	ldb	r18,0(r21)
    1fd8:	003ddc06 	br	174c <___vfprintf_internal_r+0x170>
    1fdc:	d8c12d17 	ldw	r3,1204(sp)
    1fe0:	d9012d17 	ldw	r4,1204(sp)
    1fe4:	e013883a 	mov	r9,fp
    1fe8:	18800017 	ldw	r2,0(r3)
    1fec:	21000104 	addi	r4,r4,4
    1ff0:	00c00044 	movi	r3,1
    1ff4:	d8c12815 	stw	r3,1184(sp)
    1ff8:	d8012585 	stb	zero,1174(sp)
    1ffc:	d8810405 	stb	r2,1040(sp)
    2000:	d9012d15 	stw	r4,1204(sp)
    2004:	d8c12b15 	stw	r3,1196(sp)
    2008:	dcc10404 	addi	r19,sp,1040
    200c:	003dda06 	br	1778 <___vfprintf_internal_r+0x19c>
    2010:	e013883a 	mov	r9,fp
    2014:	1839883a 	mov	fp,r3
    2018:	003ed806 	br	1b7c <___vfprintf_internal_r+0x5a0>
    201c:	e013883a 	mov	r9,fp
    2020:	1839883a 	mov	fp,r3
    2024:	003f2d06 	br	1cdc <___vfprintf_internal_r+0x700>
    2028:	e013883a 	mov	r9,fp
    202c:	1839883a 	mov	fp,r3
    2030:	003f3806 	br	1d14 <___vfprintf_internal_r+0x738>
    2034:	da011d17 	ldw	r8,1140(sp)
    2038:	d8c11c17 	ldw	r3,1136(sp)
    203c:	d8812587 	ldb	r2,1174(sp)
    2040:	10000b26 	beq	r2,zero,2070 <___vfprintf_internal_r+0xa94>
    2044:	d8812584 	addi	r2,sp,1174
    2048:	48800015 	stw	r2,0(r9)
    204c:	00800044 	movi	r2,1
    2050:	48800115 	stw	r2,4(r9)
    2054:	4091883a 	add	r8,r8,r2
    2058:	1887883a 	add	r3,r3,r2
    205c:	da011d15 	stw	r8,1140(sp)
    2060:	d8c11c15 	stw	r3,1136(sp)
    2064:	008001c4 	movi	r2,7
    2068:	10c18e16 	blt	r2,r3,26a4 <___vfprintf_internal_r+0x10c8>
    206c:	4a400204 	addi	r9,r9,8
    2070:	d9012a17 	ldw	r4,1192(sp)
    2074:	20000b26 	beq	r4,zero,20a4 <___vfprintf_internal_r+0xac8>
    2078:	d8812504 	addi	r2,sp,1172
    207c:	48800015 	stw	r2,0(r9)
    2080:	00800084 	movi	r2,2
    2084:	48800115 	stw	r2,4(r9)
    2088:	4091883a 	add	r8,r8,r2
    208c:	18c00044 	addi	r3,r3,1
    2090:	da011d15 	stw	r8,1140(sp)
    2094:	d8c11c15 	stw	r3,1136(sp)
    2098:	008001c4 	movi	r2,7
    209c:	10c17816 	blt	r2,r3,2680 <___vfprintf_internal_r+0x10a4>
    20a0:	4a400204 	addi	r9,r9,8
    20a4:	d9012f17 	ldw	r4,1212(sp)
    20a8:	00802004 	movi	r2,128
    20ac:	2080fc26 	beq	r4,r2,24a0 <___vfprintf_internal_r+0xec4>
    20b0:	d8813117 	ldw	r2,1220(sp)
    20b4:	d9012b17 	ldw	r4,1196(sp)
    20b8:	112fc83a 	sub	r23,r2,r4
    20bc:	05c02a0e 	bge	zero,r23,2168 <___vfprintf_internal_r+0xb8c>
    20c0:	07000404 	movi	fp,16
    20c4:	05000074 	movhi	r20,1
    20c8:	a5369184 	addi	r20,r20,-9658
    20cc:	e5c01d0e 	bge	fp,r23,2144 <___vfprintf_internal_r+0xb68>
    20d0:	dc812a15 	stw	r18,1192(sp)
    20d4:	058001c4 	movi	r22,7
    20d8:	a025883a 	mov	r18,r20
    20dc:	8029883a 	mov	r20,r16
    20e0:	dc012917 	ldw	r16,1188(sp)
    20e4:	00000306 	br	20f4 <___vfprintf_internal_r+0xb18>
    20e8:	bdfffc04 	addi	r23,r23,-16
    20ec:	4a400204 	addi	r9,r9,8
    20f0:	e5c0110e 	bge	fp,r23,2138 <___vfprintf_internal_r+0xb5c>
    20f4:	4c800015 	stw	r18,0(r9)
    20f8:	4f000115 	stw	fp,4(r9)
    20fc:	42000404 	addi	r8,r8,16
    2100:	18c00044 	addi	r3,r3,1
    2104:	da011d15 	stw	r8,1140(sp)
    2108:	d8c11c15 	stw	r3,1136(sp)
    210c:	b0fff60e 	bge	r22,r3,20e8 <___vfprintf_internal_r+0xb0c>
    2110:	8809883a 	mov	r4,r17
    2114:	800b883a 	mov	r5,r16
    2118:	d9811b04 	addi	r6,sp,1132
    211c:	00015a80 	call	15a8 <__sprint_r>
    2120:	103e741e 	bne	r2,zero,1af4 <___vfprintf_internal_r+0x518>
    2124:	bdfffc04 	addi	r23,r23,-16
    2128:	da011d17 	ldw	r8,1140(sp)
    212c:	d8c11c17 	ldw	r3,1136(sp)
    2130:	da400404 	addi	r9,sp,16
    2134:	e5ffef16 	blt	fp,r23,20f4 <___vfprintf_internal_r+0xb18>
    2138:	a021883a 	mov	r16,r20
    213c:	9029883a 	mov	r20,r18
    2140:	dc812a17 	ldw	r18,1192(sp)
    2144:	4d000015 	stw	r20,0(r9)
    2148:	4dc00115 	stw	r23,4(r9)
    214c:	45d1883a 	add	r8,r8,r23
    2150:	18c00044 	addi	r3,r3,1
    2154:	da011d15 	stw	r8,1140(sp)
    2158:	d8c11c15 	stw	r3,1136(sp)
    215c:	008001c4 	movi	r2,7
    2160:	10c13e16 	blt	r2,r3,265c <___vfprintf_internal_r+0x1080>
    2164:	4a400204 	addi	r9,r9,8
    2168:	8080400c 	andi	r2,r16,256
    216c:	1000831e 	bne	r2,zero,237c <___vfprintf_internal_r+0xda0>
    2170:	d8812b17 	ldw	r2,1196(sp)
    2174:	4cc00015 	stw	r19,0(r9)
    2178:	48800115 	stw	r2,4(r9)
    217c:	4091883a 	add	r8,r8,r2
    2180:	18c00044 	addi	r3,r3,1
    2184:	da011d15 	stw	r8,1140(sp)
    2188:	d8c11c15 	stw	r3,1136(sp)
    218c:	008001c4 	movi	r2,7
    2190:	10c05316 	blt	r2,r3,22e0 <___vfprintf_internal_r+0xd04>
    2194:	4a400204 	addi	r9,r9,8
    2198:	8400010c 	andi	r16,r16,4
    219c:	80002e26 	beq	r16,zero,2258 <___vfprintf_internal_r+0xc7c>
    21a0:	d8812e17 	ldw	r2,1208(sp)
    21a4:	d8c12817 	ldw	r3,1184(sp)
    21a8:	10e1c83a 	sub	r16,r2,r3
    21ac:	04002a0e 	bge	zero,r16,2258 <___vfprintf_internal_r+0xc7c>
    21b0:	04800404 	movi	r18,16
    21b4:	d8c11c17 	ldw	r3,1136(sp)
    21b8:	05c00074 	movhi	r23,1
    21bc:	bdf68d84 	addi	r23,r23,-9674
    21c0:	9400170e 	bge	r18,r16,2220 <___vfprintf_internal_r+0xc44>
    21c4:	04c001c4 	movi	r19,7
    21c8:	dd012917 	ldw	r20,1188(sp)
    21cc:	00000306 	br	21dc <___vfprintf_internal_r+0xc00>
    21d0:	843ffc04 	addi	r16,r16,-16
    21d4:	4a400204 	addi	r9,r9,8
    21d8:	9400110e 	bge	r18,r16,2220 <___vfprintf_internal_r+0xc44>
    21dc:	4dc00015 	stw	r23,0(r9)
    21e0:	4c800115 	stw	r18,4(r9)
    21e4:	42000404 	addi	r8,r8,16
    21e8:	18c00044 	addi	r3,r3,1
    21ec:	da011d15 	stw	r8,1140(sp)
    21f0:	d8c11c15 	stw	r3,1136(sp)
    21f4:	98fff60e 	bge	r19,r3,21d0 <___vfprintf_internal_r+0xbf4>
    21f8:	8809883a 	mov	r4,r17
    21fc:	a00b883a 	mov	r5,r20
    2200:	d9811b04 	addi	r6,sp,1132
    2204:	00015a80 	call	15a8 <__sprint_r>
    2208:	103e3a1e 	bne	r2,zero,1af4 <___vfprintf_internal_r+0x518>
    220c:	843ffc04 	addi	r16,r16,-16
    2210:	da011d17 	ldw	r8,1140(sp)
    2214:	d8c11c17 	ldw	r3,1136(sp)
    2218:	da400404 	addi	r9,sp,16
    221c:	943fef16 	blt	r18,r16,21dc <___vfprintf_internal_r+0xc00>
    2220:	4dc00015 	stw	r23,0(r9)
    2224:	4c000115 	stw	r16,4(r9)
    2228:	8211883a 	add	r8,r16,r8
    222c:	18c00044 	addi	r3,r3,1
    2230:	da011d15 	stw	r8,1140(sp)
    2234:	d8c11c15 	stw	r3,1136(sp)
    2238:	008001c4 	movi	r2,7
    223c:	10c0060e 	bge	r2,r3,2258 <___vfprintf_internal_r+0xc7c>
    2240:	d9412917 	ldw	r5,1188(sp)
    2244:	8809883a 	mov	r4,r17
    2248:	d9811b04 	addi	r6,sp,1132
    224c:	00015a80 	call	15a8 <__sprint_r>
    2250:	103e281e 	bne	r2,zero,1af4 <___vfprintf_internal_r+0x518>
    2254:	da011d17 	ldw	r8,1140(sp)
    2258:	dd012817 	ldw	r20,1184(sp)
    225c:	d9012e17 	ldw	r4,1208(sp)
    2260:	a100010e 	bge	r20,r4,2268 <___vfprintf_internal_r+0xc8c>
    2264:	2029883a 	mov	r20,r4
    2268:	d8812c17 	ldw	r2,1200(sp)
    226c:	1505883a 	add	r2,r2,r20
    2270:	d8812c15 	stw	r2,1200(sp)
    2274:	4000b91e 	bne	r8,zero,255c <___vfprintf_internal_r+0xf80>
    2278:	d8011c15 	stw	zero,1136(sp)
    227c:	a8800007 	ldb	r2,0(r21)
    2280:	da400404 	addi	r9,sp,16
    2284:	103d0d1e 	bne	r2,zero,16bc <___vfprintf_internal_r+0xe0>
    2288:	a825883a 	mov	r18,r21
    228c:	003d2306 	br	171c <___vfprintf_internal_r+0x140>
    2290:	d9412917 	ldw	r5,1188(sp)
    2294:	8809883a 	mov	r4,r17
    2298:	d9811b04 	addi	r6,sp,1132
    229c:	00015a80 	call	15a8 <__sprint_r>
    22a0:	103e141e 	bne	r2,zero,1af4 <___vfprintf_internal_r+0x518>
    22a4:	da011d17 	ldw	r8,1140(sp)
    22a8:	da400404 	addi	r9,sp,16
    22ac:	8080004c 	andi	r2,r16,1
    22b0:	103fb926 	beq	r2,zero,2198 <___vfprintf_internal_r+0xbbc>
    22b4:	d8c11c17 	ldw	r3,1136(sp)
    22b8:	d9013717 	ldw	r4,1244(sp)
    22bc:	00800044 	movi	r2,1
    22c0:	48800115 	stw	r2,4(r9)
    22c4:	49000015 	stw	r4,0(r9)
    22c8:	4091883a 	add	r8,r8,r2
    22cc:	1887883a 	add	r3,r3,r2
    22d0:	da011d15 	stw	r8,1140(sp)
    22d4:	d8c11c15 	stw	r3,1136(sp)
    22d8:	008001c4 	movi	r2,7
    22dc:	10ffad0e 	bge	r2,r3,2194 <___vfprintf_internal_r+0xbb8>
    22e0:	d9412917 	ldw	r5,1188(sp)
    22e4:	8809883a 	mov	r4,r17
    22e8:	d9811b04 	addi	r6,sp,1132
    22ec:	00015a80 	call	15a8 <__sprint_r>
    22f0:	103e001e 	bne	r2,zero,1af4 <___vfprintf_internal_r+0x518>
    22f4:	da400404 	addi	r9,sp,16
    22f8:	da011d17 	ldw	r8,1140(sp)
    22fc:	003fa606 	br	2198 <___vfprintf_internal_r+0xbbc>
    2300:	18803fcc 	andi	r2,r3,255
    2304:	00c00044 	movi	r3,1
    2308:	10c10126 	beq	r2,r3,2710 <___vfprintf_internal_r+0x1134>
    230c:	00c00084 	movi	r3,2
    2310:	10c0ed26 	beq	r2,r3,26c8 <___vfprintf_internal_r+0x10ec>
    2314:	d8c10dc4 	addi	r3,sp,1079
    2318:	b808d0fa 	srli	r4,r23,3
    231c:	b00a977a 	slli	r5,r22,29
    2320:	b02cd0fa 	srli	r22,r22,3
    2324:	bdc001cc 	andi	r23,r23,7
    2328:	b8800c04 	addi	r2,r23,48
    232c:	292eb03a 	or	r23,r5,r4
    2330:	18800005 	stb	r2,0(r3)
    2334:	bd88b03a 	or	r4,r23,r22
    2338:	1827883a 	mov	r19,r3
    233c:	18ffffc4 	addi	r3,r3,-1
    2340:	203ff51e 	bne	r4,zero,2318 <___vfprintf_internal_r+0xd3c>
    2344:	8100004c 	andi	r4,r16,1
    2348:	980b883a 	mov	r5,r19
    234c:	20000726 	beq	r4,zero,236c <___vfprintf_internal_r+0xd90>
    2350:	10803fcc 	andi	r2,r2,255
    2354:	1080201c 	xori	r2,r2,128
    2358:	10bfe004 	addi	r2,r2,-128
    235c:	01000c04 	movi	r4,48
    2360:	11000226 	beq	r2,r4,236c <___vfprintf_internal_r+0xd90>
    2364:	1827883a 	mov	r19,r3
    2368:	293fffc5 	stb	r4,-1(r5)
    236c:	d8812717 	ldw	r2,1180(sp)
    2370:	14c5c83a 	sub	r2,r2,r19
    2374:	d8812b15 	stw	r2,1196(sp)
    2378:	003e1f06 	br	1bf8 <___vfprintf_internal_r+0x61c>
    237c:	00801944 	movi	r2,101
    2380:	14807c0e 	bge	r2,r18,2574 <___vfprintf_internal_r+0xf98>
    2384:	d9013317 	ldw	r4,1228(sp)
    2388:	d9413417 	ldw	r5,1232(sp)
    238c:	000d883a 	mov	r6,zero
    2390:	000f883a 	mov	r7,zero
    2394:	d8c13b15 	stw	r3,1260(sp)
    2398:	da013a15 	stw	r8,1256(sp)
    239c:	da413c15 	stw	r9,1264(sp)
    23a0:	000a2740 	call	a274 <__eqdf2>
    23a4:	d8c13b17 	ldw	r3,1260(sp)
    23a8:	da013a17 	ldw	r8,1256(sp)
    23ac:	da413c17 	ldw	r9,1264(sp)
    23b0:	1001001e 	bne	r2,zero,27b4 <___vfprintf_internal_r+0x11d8>
    23b4:	00800074 	movhi	r2,1
    23b8:	10b68d04 	addi	r2,r2,-9676
    23bc:	48800015 	stw	r2,0(r9)
    23c0:	00800044 	movi	r2,1
    23c4:	48800115 	stw	r2,4(r9)
    23c8:	4091883a 	add	r8,r8,r2
    23cc:	1887883a 	add	r3,r3,r2
    23d0:	da011d15 	stw	r8,1140(sp)
    23d4:	d8c11c15 	stw	r3,1136(sp)
    23d8:	008001c4 	movi	r2,7
    23dc:	10c20316 	blt	r2,r3,2bec <___vfprintf_internal_r+0x1610>
    23e0:	4a400204 	addi	r9,r9,8
    23e4:	d8812417 	ldw	r2,1168(sp)
    23e8:	d8c13217 	ldw	r3,1224(sp)
    23ec:	10c00216 	blt	r2,r3,23f8 <___vfprintf_internal_r+0xe1c>
    23f0:	8080004c 	andi	r2,r16,1
    23f4:	103f6826 	beq	r2,zero,2198 <___vfprintf_internal_r+0xbbc>
    23f8:	d8c11c17 	ldw	r3,1136(sp)
    23fc:	d9013717 	ldw	r4,1244(sp)
    2400:	00800044 	movi	r2,1
    2404:	48800115 	stw	r2,4(r9)
    2408:	49000015 	stw	r4,0(r9)
    240c:	4091883a 	add	r8,r8,r2
    2410:	1887883a 	add	r3,r3,r2
    2414:	da011d15 	stw	r8,1140(sp)
    2418:	d8c11c15 	stw	r3,1136(sp)
    241c:	008001c4 	movi	r2,7
    2420:	10c2ce16 	blt	r2,r3,2f5c <___vfprintf_internal_r+0x1980>
    2424:	4a400204 	addi	r9,r9,8
    2428:	d8813217 	ldw	r2,1224(sp)
    242c:	14bfffc4 	addi	r18,r2,-1
    2430:	04bf590e 	bge	zero,r18,2198 <___vfprintf_internal_r+0xbbc>
    2434:	04c00404 	movi	r19,16
    2438:	d8c11c17 	ldw	r3,1136(sp)
    243c:	05000074 	movhi	r20,1
    2440:	a5369184 	addi	r20,r20,-9658
    2444:	9c818a0e 	bge	r19,r18,2a70 <___vfprintf_internal_r+0x1494>
    2448:	058001c4 	movi	r22,7
    244c:	ddc12917 	ldw	r23,1188(sp)
    2450:	00000306 	br	2460 <___vfprintf_internal_r+0xe84>
    2454:	4a400204 	addi	r9,r9,8
    2458:	94bffc04 	addi	r18,r18,-16
    245c:	9c81840e 	bge	r19,r18,2a70 <___vfprintf_internal_r+0x1494>
    2460:	4d000015 	stw	r20,0(r9)
    2464:	4cc00115 	stw	r19,4(r9)
    2468:	42000404 	addi	r8,r8,16
    246c:	18c00044 	addi	r3,r3,1
    2470:	da011d15 	stw	r8,1140(sp)
    2474:	d8c11c15 	stw	r3,1136(sp)
    2478:	b0fff60e 	bge	r22,r3,2454 <___vfprintf_internal_r+0xe78>
    247c:	8809883a 	mov	r4,r17
    2480:	b80b883a 	mov	r5,r23
    2484:	d9811b04 	addi	r6,sp,1132
    2488:	00015a80 	call	15a8 <__sprint_r>
    248c:	103d991e 	bne	r2,zero,1af4 <___vfprintf_internal_r+0x518>
    2490:	da011d17 	ldw	r8,1140(sp)
    2494:	d8c11c17 	ldw	r3,1136(sp)
    2498:	da400404 	addi	r9,sp,16
    249c:	003fee06 	br	2458 <___vfprintf_internal_r+0xe7c>
    24a0:	d8812e17 	ldw	r2,1208(sp)
    24a4:	d9012817 	ldw	r4,1184(sp)
    24a8:	112fc83a 	sub	r23,r2,r4
    24ac:	05ff000e 	bge	zero,r23,20b0 <___vfprintf_internal_r+0xad4>
    24b0:	07000404 	movi	fp,16
    24b4:	05000074 	movhi	r20,1
    24b8:	a5369184 	addi	r20,r20,-9658
    24bc:	e5c01d0e 	bge	fp,r23,2534 <___vfprintf_internal_r+0xf58>
    24c0:	dc812a15 	stw	r18,1192(sp)
    24c4:	058001c4 	movi	r22,7
    24c8:	a025883a 	mov	r18,r20
    24cc:	8029883a 	mov	r20,r16
    24d0:	dc012917 	ldw	r16,1188(sp)
    24d4:	00000306 	br	24e4 <___vfprintf_internal_r+0xf08>
    24d8:	bdfffc04 	addi	r23,r23,-16
    24dc:	4a400204 	addi	r9,r9,8
    24e0:	e5c0110e 	bge	fp,r23,2528 <___vfprintf_internal_r+0xf4c>
    24e4:	4c800015 	stw	r18,0(r9)
    24e8:	4f000115 	stw	fp,4(r9)
    24ec:	42000404 	addi	r8,r8,16
    24f0:	18c00044 	addi	r3,r3,1
    24f4:	da011d15 	stw	r8,1140(sp)
    24f8:	d8c11c15 	stw	r3,1136(sp)
    24fc:	b0fff60e 	bge	r22,r3,24d8 <___vfprintf_internal_r+0xefc>
    2500:	8809883a 	mov	r4,r17
    2504:	800b883a 	mov	r5,r16
    2508:	d9811b04 	addi	r6,sp,1132
    250c:	00015a80 	call	15a8 <__sprint_r>
    2510:	103d781e 	bne	r2,zero,1af4 <___vfprintf_internal_r+0x518>
    2514:	bdfffc04 	addi	r23,r23,-16
    2518:	da011d17 	ldw	r8,1140(sp)
    251c:	d8c11c17 	ldw	r3,1136(sp)
    2520:	da400404 	addi	r9,sp,16
    2524:	e5ffef16 	blt	fp,r23,24e4 <___vfprintf_internal_r+0xf08>
    2528:	a021883a 	mov	r16,r20
    252c:	9029883a 	mov	r20,r18
    2530:	dc812a17 	ldw	r18,1192(sp)
    2534:	4d000015 	stw	r20,0(r9)
    2538:	4dc00115 	stw	r23,4(r9)
    253c:	45d1883a 	add	r8,r8,r23
    2540:	18c00044 	addi	r3,r3,1
    2544:	da011d15 	stw	r8,1140(sp)
    2548:	d8c11c15 	stw	r3,1136(sp)
    254c:	008001c4 	movi	r2,7
    2550:	10c13616 	blt	r2,r3,2a2c <___vfprintf_internal_r+0x1450>
    2554:	4a400204 	addi	r9,r9,8
    2558:	003ed506 	br	20b0 <___vfprintf_internal_r+0xad4>
    255c:	d9412917 	ldw	r5,1188(sp)
    2560:	8809883a 	mov	r4,r17
    2564:	d9811b04 	addi	r6,sp,1132
    2568:	00015a80 	call	15a8 <__sprint_r>
    256c:	103f4226 	beq	r2,zero,2278 <___vfprintf_internal_r+0xc9c>
    2570:	003d6006 	br	1af4 <___vfprintf_internal_r+0x518>
    2574:	d9013217 	ldw	r4,1224(sp)
    2578:	00800044 	movi	r2,1
    257c:	4cc00015 	stw	r19,0(r9)
    2580:	1101000e 	bge	r2,r4,2984 <___vfprintf_internal_r+0x13a8>
    2584:	00800044 	movi	r2,1
    2588:	48800115 	stw	r2,4(r9)
    258c:	4091883a 	add	r8,r8,r2
    2590:	1887883a 	add	r3,r3,r2
    2594:	da011d15 	stw	r8,1140(sp)
    2598:	d8c11c15 	stw	r3,1136(sp)
    259c:	008001c4 	movi	r2,7
    25a0:	10c10c16 	blt	r2,r3,29d4 <___vfprintf_internal_r+0x13f8>
    25a4:	4a400204 	addi	r9,r9,8
    25a8:	d8813717 	ldw	r2,1244(sp)
    25ac:	48800015 	stw	r2,0(r9)
    25b0:	00800044 	movi	r2,1
    25b4:	48800115 	stw	r2,4(r9)
    25b8:	4091883a 	add	r8,r8,r2
    25bc:	1887883a 	add	r3,r3,r2
    25c0:	da011d15 	stw	r8,1140(sp)
    25c4:	d8c11c15 	stw	r3,1136(sp)
    25c8:	008001c4 	movi	r2,7
    25cc:	10c10a16 	blt	r2,r3,29f8 <___vfprintf_internal_r+0x141c>
    25d0:	4c800204 	addi	r18,r9,8
    25d4:	d9013317 	ldw	r4,1228(sp)
    25d8:	d9413417 	ldw	r5,1232(sp)
    25dc:	000d883a 	mov	r6,zero
    25e0:	000f883a 	mov	r7,zero
    25e4:	d8c13b15 	stw	r3,1260(sp)
    25e8:	da013a15 	stw	r8,1256(sp)
    25ec:	000a2d00 	call	a2d0 <__nedf2>
    25f0:	d8c13b17 	ldw	r3,1260(sp)
    25f4:	da013a17 	ldw	r8,1256(sp)
    25f8:	1000ba26 	beq	r2,zero,28e4 <___vfprintf_internal_r+0x1308>
    25fc:	d9013217 	ldw	r4,1224(sp)
    2600:	9cc00044 	addi	r19,r19,1
    2604:	94c00015 	stw	r19,0(r18)
    2608:	20bfffc4 	addi	r2,r4,-1
    260c:	90800115 	stw	r2,4(r18)
    2610:	4091883a 	add	r8,r8,r2
    2614:	18c00044 	addi	r3,r3,1
    2618:	da011d15 	stw	r8,1140(sp)
    261c:	d8c11c15 	stw	r3,1136(sp)
    2620:	008001c4 	movi	r2,7
    2624:	10c0e216 	blt	r2,r3,29b0 <___vfprintf_internal_r+0x13d4>
    2628:	94800204 	addi	r18,r18,8
    262c:	d9013517 	ldw	r4,1236(sp)
    2630:	d8811fc4 	addi	r2,sp,1151
    2634:	90800015 	stw	r2,0(r18)
    2638:	91000115 	stw	r4,4(r18)
    263c:	4111883a 	add	r8,r8,r4
    2640:	18c00044 	addi	r3,r3,1
    2644:	da011d15 	stw	r8,1140(sp)
    2648:	d8c11c15 	stw	r3,1136(sp)
    264c:	008001c4 	movi	r2,7
    2650:	10ff2316 	blt	r2,r3,22e0 <___vfprintf_internal_r+0xd04>
    2654:	92400204 	addi	r9,r18,8
    2658:	003ecf06 	br	2198 <___vfprintf_internal_r+0xbbc>
    265c:	d9412917 	ldw	r5,1188(sp)
    2660:	8809883a 	mov	r4,r17
    2664:	d9811b04 	addi	r6,sp,1132
    2668:	00015a80 	call	15a8 <__sprint_r>
    266c:	103d211e 	bne	r2,zero,1af4 <___vfprintf_internal_r+0x518>
    2670:	da011d17 	ldw	r8,1140(sp)
    2674:	d8c11c17 	ldw	r3,1136(sp)
    2678:	da400404 	addi	r9,sp,16
    267c:	003eba06 	br	2168 <___vfprintf_internal_r+0xb8c>
    2680:	d9412917 	ldw	r5,1188(sp)
    2684:	8809883a 	mov	r4,r17
    2688:	d9811b04 	addi	r6,sp,1132
    268c:	00015a80 	call	15a8 <__sprint_r>
    2690:	103d181e 	bne	r2,zero,1af4 <___vfprintf_internal_r+0x518>
    2694:	da011d17 	ldw	r8,1140(sp)
    2698:	d8c11c17 	ldw	r3,1136(sp)
    269c:	da400404 	addi	r9,sp,16
    26a0:	003e8006 	br	20a4 <___vfprintf_internal_r+0xac8>
    26a4:	d9412917 	ldw	r5,1188(sp)
    26a8:	8809883a 	mov	r4,r17
    26ac:	d9811b04 	addi	r6,sp,1132
    26b0:	00015a80 	call	15a8 <__sprint_r>
    26b4:	103d0f1e 	bne	r2,zero,1af4 <___vfprintf_internal_r+0x518>
    26b8:	da011d17 	ldw	r8,1140(sp)
    26bc:	d8c11c17 	ldw	r3,1136(sp)
    26c0:	da400404 	addi	r9,sp,16
    26c4:	003e6a06 	br	2070 <___vfprintf_internal_r+0xa94>
    26c8:	d9413617 	ldw	r5,1240(sp)
    26cc:	d8810dc4 	addi	r2,sp,1079
    26d0:	b8c003cc 	andi	r3,r23,15
    26d4:	b008973a 	slli	r4,r22,28
    26d8:	28c7883a 	add	r3,r5,r3
    26dc:	b82ed13a 	srli	r23,r23,4
    26e0:	18c00003 	ldbu	r3,0(r3)
    26e4:	b02cd13a 	srli	r22,r22,4
    26e8:	25eeb03a 	or	r23,r4,r23
    26ec:	10c00005 	stb	r3,0(r2)
    26f0:	bd86b03a 	or	r3,r23,r22
    26f4:	1027883a 	mov	r19,r2
    26f8:	10bfffc4 	addi	r2,r2,-1
    26fc:	183ff41e 	bne	r3,zero,26d0 <___vfprintf_internal_r+0x10f4>
    2700:	003f1a06 	br	236c <___vfprintf_internal_r+0xd90>
    2704:	d8012b15 	stw	zero,1196(sp)
    2708:	dcc10e04 	addi	r19,sp,1080
    270c:	003d3a06 	br	1bf8 <___vfprintf_internal_r+0x61c>
    2710:	b0025426 	beq	r22,zero,3064 <___vfprintf_internal_r+0x1a88>
    2714:	b807883a 	mov	r3,r23
    2718:	d8810dc4 	addi	r2,sp,1079
    271c:	882f883a 	mov	r23,r17
    2720:	04c00244 	movi	r19,9
    2724:	8023883a 	mov	r17,r16
    2728:	da412815 	stw	r9,1184(sp)
    272c:	1821883a 	mov	r16,r3
    2730:	8009883a 	mov	r4,r16
    2734:	b00b883a 	mov	r5,r22
    2738:	01800284 	movi	r6,10
    273c:	000f883a 	mov	r7,zero
    2740:	1029883a 	mov	r20,r2
    2744:	00093ac0 	call	93ac <__umoddi3>
    2748:	10800c04 	addi	r2,r2,48
    274c:	8009883a 	mov	r4,r16
    2750:	b00b883a 	mov	r5,r22
    2754:	a0800005 	stb	r2,0(r20)
    2758:	01800284 	movi	r6,10
    275c:	000f883a 	mov	r7,zero
    2760:	0008d5c0 	call	8d5c <__udivdi3>
    2764:	1021883a 	mov	r16,r2
    2768:	182d883a 	mov	r22,r3
    276c:	a0bfffc4 	addi	r2,r20,-1
    2770:	183fef1e 	bne	r3,zero,2730 <___vfprintf_internal_r+0x1154>
    2774:	9c3fee36 	bltu	r19,r16,2730 <___vfprintf_internal_r+0x1154>
    2778:	da412817 	ldw	r9,1184(sp)
    277c:	8005883a 	mov	r2,r16
    2780:	8821883a 	mov	r16,r17
    2784:	b823883a 	mov	r17,r23
    2788:	102f883a 	mov	r23,r2
    278c:	d8812717 	ldw	r2,1180(sp)
    2790:	a4ffffc4 	addi	r19,r20,-1
    2794:	bdc00c04 	addi	r23,r23,48
    2798:	14c5c83a 	sub	r2,r2,r19
    279c:	a5ffffc5 	stb	r23,-1(r20)
    27a0:	d8812b15 	stw	r2,1196(sp)
    27a4:	003d1406 	br	1bf8 <___vfprintf_internal_r+0x61c>
    27a8:	00c00044 	movi	r3,1
    27ac:	bd84b03a 	or	r2,r23,r22
    27b0:	003d0306 	br	1bc0 <___vfprintf_internal_r+0x5e4>
    27b4:	dc812417 	ldw	r18,1168(sp)
    27b8:	0481140e 	bge	zero,r18,2c0c <___vfprintf_internal_r+0x1630>
    27bc:	d9013217 	ldw	r4,1224(sp)
    27c0:	4cc00015 	stw	r19,0(r9)
    27c4:	9100ec16 	blt	r18,r4,2b78 <___vfprintf_internal_r+0x159c>
    27c8:	49000115 	stw	r4,4(r9)
    27cc:	4111883a 	add	r8,r8,r4
    27d0:	18c00044 	addi	r3,r3,1
    27d4:	da011d15 	stw	r8,1140(sp)
    27d8:	d8c11c15 	stw	r3,1136(sp)
    27dc:	008001c4 	movi	r2,7
    27e0:	10c23616 	blt	r2,r3,30bc <___vfprintf_internal_r+0x1ae0>
    27e4:	4a400204 	addi	r9,r9,8
    27e8:	d8813217 	ldw	r2,1224(sp)
    27ec:	90a5c83a 	sub	r18,r18,r2
    27f0:	04beae0e 	bge	zero,r18,22ac <___vfprintf_internal_r+0xcd0>
    27f4:	04c00404 	movi	r19,16
    27f8:	d8c11c17 	ldw	r3,1136(sp)
    27fc:	05000074 	movhi	r20,1
    2800:	a5369184 	addi	r20,r20,-9658
    2804:	9c81dd0e 	bge	r19,r18,2f7c <___vfprintf_internal_r+0x19a0>
    2808:	058001c4 	movi	r22,7
    280c:	ddc12917 	ldw	r23,1188(sp)
    2810:	00000306 	br	2820 <___vfprintf_internal_r+0x1244>
    2814:	4a400204 	addi	r9,r9,8
    2818:	94bffc04 	addi	r18,r18,-16
    281c:	9c81d70e 	bge	r19,r18,2f7c <___vfprintf_internal_r+0x19a0>
    2820:	4d000015 	stw	r20,0(r9)
    2824:	4cc00115 	stw	r19,4(r9)
    2828:	42000404 	addi	r8,r8,16
    282c:	18c00044 	addi	r3,r3,1
    2830:	da011d15 	stw	r8,1140(sp)
    2834:	d8c11c15 	stw	r3,1136(sp)
    2838:	b0fff60e 	bge	r22,r3,2814 <___vfprintf_internal_r+0x1238>
    283c:	8809883a 	mov	r4,r17
    2840:	b80b883a 	mov	r5,r23
    2844:	d9811b04 	addi	r6,sp,1132
    2848:	00015a80 	call	15a8 <__sprint_r>
    284c:	103ca91e 	bne	r2,zero,1af4 <___vfprintf_internal_r+0x518>
    2850:	da011d17 	ldw	r8,1140(sp)
    2854:	d8c11c17 	ldw	r3,1136(sp)
    2858:	da400404 	addi	r9,sp,16
    285c:	003fee06 	br	2818 <___vfprintf_internal_r+0x123c>
    2860:	d9412917 	ldw	r5,1188(sp)
    2864:	8809883a 	mov	r4,r17
    2868:	d9811b04 	addi	r6,sp,1132
    286c:	00015a80 	call	15a8 <__sprint_r>
    2870:	103ca01e 	bne	r2,zero,1af4 <___vfprintf_internal_r+0x518>
    2874:	da011d17 	ldw	r8,1140(sp)
    2878:	d8c11c17 	ldw	r3,1136(sp)
    287c:	da400404 	addi	r9,sp,16
    2880:	003dee06 	br	203c <___vfprintf_internal_r+0xa60>
    2884:	00c00084 	movi	r3,2
    2888:	bd84b03a 	or	r2,r23,r22
    288c:	d8012585 	stb	zero,1174(sp)
    2890:	003ccb06 	br	1bc0 <___vfprintf_internal_r+0x5e4>
    2894:	8080040c 	andi	r2,r16,16
    2898:	1000ae26 	beq	r2,zero,2b54 <___vfprintf_internal_r+0x1578>
    289c:	d9012d17 	ldw	r4,1204(sp)
    28a0:	25c00017 	ldw	r23,0(r4)
    28a4:	21000104 	addi	r4,r4,4
    28a8:	d9012d15 	stw	r4,1204(sp)
    28ac:	b82dd7fa 	srai	r22,r23,31
    28b0:	b005883a 	mov	r2,r22
    28b4:	003cb906 	br	1b9c <___vfprintf_internal_r+0x5c0>
    28b8:	8080040c 	andi	r2,r16,16
    28bc:	10007026 	beq	r2,zero,2a80 <___vfprintf_internal_r+0x14a4>
    28c0:	d8812d17 	ldw	r2,1204(sp)
    28c4:	002d883a 	mov	r22,zero
    28c8:	00c00044 	movi	r3,1
    28cc:	15c00017 	ldw	r23,0(r2)
    28d0:	10800104 	addi	r2,r2,4
    28d4:	d8812d15 	stw	r2,1204(sp)
    28d8:	d8012585 	stb	zero,1174(sp)
    28dc:	b805883a 	mov	r2,r23
    28e0:	003cb706 	br	1bc0 <___vfprintf_internal_r+0x5e4>
    28e4:	d8813217 	ldw	r2,1224(sp)
    28e8:	14ffffc4 	addi	r19,r2,-1
    28ec:	04ff4f0e 	bge	zero,r19,262c <___vfprintf_internal_r+0x1050>
    28f0:	05800404 	movi	r22,16
    28f4:	05000074 	movhi	r20,1
    28f8:	a5369184 	addi	r20,r20,-9658
    28fc:	b4c0470e 	bge	r22,r19,2a1c <___vfprintf_internal_r+0x1440>
    2900:	05c001c4 	movi	r23,7
    2904:	df012917 	ldw	fp,1188(sp)
    2908:	00000306 	br	2918 <___vfprintf_internal_r+0x133c>
    290c:	94800204 	addi	r18,r18,8
    2910:	9cfffc04 	addi	r19,r19,-16
    2914:	b4c0410e 	bge	r22,r19,2a1c <___vfprintf_internal_r+0x1440>
    2918:	95000015 	stw	r20,0(r18)
    291c:	95800115 	stw	r22,4(r18)
    2920:	42000404 	addi	r8,r8,16
    2924:	18c00044 	addi	r3,r3,1
    2928:	da011d15 	stw	r8,1140(sp)
    292c:	d8c11c15 	stw	r3,1136(sp)
    2930:	b8fff60e 	bge	r23,r3,290c <___vfprintf_internal_r+0x1330>
    2934:	8809883a 	mov	r4,r17
    2938:	e00b883a 	mov	r5,fp
    293c:	d9811b04 	addi	r6,sp,1132
    2940:	00015a80 	call	15a8 <__sprint_r>
    2944:	103c6b1e 	bne	r2,zero,1af4 <___vfprintf_internal_r+0x518>
    2948:	da011d17 	ldw	r8,1140(sp)
    294c:	d8c11c17 	ldw	r3,1136(sp)
    2950:	dc800404 	addi	r18,sp,16
    2954:	003fee06 	br	2910 <___vfprintf_internal_r+0x1334>
    2958:	8080040c 	andi	r2,r16,16
    295c:	10005326 	beq	r2,zero,2aac <___vfprintf_internal_r+0x14d0>
    2960:	d8c12d17 	ldw	r3,1204(sp)
    2964:	002d883a 	mov	r22,zero
    2968:	1dc00017 	ldw	r23,0(r3)
    296c:	18c00104 	addi	r3,r3,4
    2970:	d8c12d15 	stw	r3,1204(sp)
    2974:	b805883a 	mov	r2,r23
    2978:	0007883a 	mov	r3,zero
    297c:	d8012585 	stb	zero,1174(sp)
    2980:	003c8f06 	br	1bc0 <___vfprintf_internal_r+0x5e4>
    2984:	8088703a 	and	r4,r16,r2
    2988:	203efe1e 	bne	r4,zero,2584 <___vfprintf_internal_r+0xfa8>
    298c:	48800115 	stw	r2,4(r9)
    2990:	42000044 	addi	r8,r8,1
    2994:	18c00044 	addi	r3,r3,1
    2998:	da011d15 	stw	r8,1140(sp)
    299c:	d8c11c15 	stw	r3,1136(sp)
    29a0:	008001c4 	movi	r2,7
    29a4:	10c00216 	blt	r2,r3,29b0 <___vfprintf_internal_r+0x13d4>
    29a8:	4c800204 	addi	r18,r9,8
    29ac:	003f1f06 	br	262c <___vfprintf_internal_r+0x1050>
    29b0:	d9412917 	ldw	r5,1188(sp)
    29b4:	8809883a 	mov	r4,r17
    29b8:	d9811b04 	addi	r6,sp,1132
    29bc:	00015a80 	call	15a8 <__sprint_r>
    29c0:	103c4c1e 	bne	r2,zero,1af4 <___vfprintf_internal_r+0x518>
    29c4:	dc800404 	addi	r18,sp,16
    29c8:	da011d17 	ldw	r8,1140(sp)
    29cc:	d8c11c17 	ldw	r3,1136(sp)
    29d0:	003f1606 	br	262c <___vfprintf_internal_r+0x1050>
    29d4:	d9412917 	ldw	r5,1188(sp)
    29d8:	8809883a 	mov	r4,r17
    29dc:	d9811b04 	addi	r6,sp,1132
    29e0:	00015a80 	call	15a8 <__sprint_r>
    29e4:	103c431e 	bne	r2,zero,1af4 <___vfprintf_internal_r+0x518>
    29e8:	da011d17 	ldw	r8,1140(sp)
    29ec:	d8c11c17 	ldw	r3,1136(sp)
    29f0:	da400404 	addi	r9,sp,16
    29f4:	003eec06 	br	25a8 <___vfprintf_internal_r+0xfcc>
    29f8:	d9412917 	ldw	r5,1188(sp)
    29fc:	8809883a 	mov	r4,r17
    2a00:	d9811b04 	addi	r6,sp,1132
    2a04:	00015a80 	call	15a8 <__sprint_r>
    2a08:	103c3a1e 	bne	r2,zero,1af4 <___vfprintf_internal_r+0x518>
    2a0c:	da011d17 	ldw	r8,1140(sp)
    2a10:	d8c11c17 	ldw	r3,1136(sp)
    2a14:	dc800404 	addi	r18,sp,16
    2a18:	003eee06 	br	25d4 <___vfprintf_internal_r+0xff8>
    2a1c:	95000015 	stw	r20,0(r18)
    2a20:	94c00115 	stw	r19,4(r18)
    2a24:	44d1883a 	add	r8,r8,r19
    2a28:	003efa06 	br	2614 <___vfprintf_internal_r+0x1038>
    2a2c:	d9412917 	ldw	r5,1188(sp)
    2a30:	8809883a 	mov	r4,r17
    2a34:	d9811b04 	addi	r6,sp,1132
    2a38:	00015a80 	call	15a8 <__sprint_r>
    2a3c:	103c2d1e 	bne	r2,zero,1af4 <___vfprintf_internal_r+0x518>
    2a40:	da011d17 	ldw	r8,1140(sp)
    2a44:	d8c11c17 	ldw	r3,1136(sp)
    2a48:	da400404 	addi	r9,sp,16
    2a4c:	003d9806 	br	20b0 <___vfprintf_internal_r+0xad4>
    2a50:	8080100c 	andi	r2,r16,64
    2a54:	10011626 	beq	r2,zero,2eb0 <___vfprintf_internal_r+0x18d4>
    2a58:	d8c12d17 	ldw	r3,1204(sp)
    2a5c:	002d883a 	mov	r22,zero
    2a60:	1dc0000b 	ldhu	r23,0(r3)
    2a64:	18c00104 	addi	r3,r3,4
    2a68:	d8c12d15 	stw	r3,1204(sp)
    2a6c:	003cc106 	br	1d74 <___vfprintf_internal_r+0x798>
    2a70:	4d000015 	stw	r20,0(r9)
    2a74:	4c800115 	stw	r18,4(r9)
    2a78:	4491883a 	add	r8,r8,r18
    2a7c:	003dc006 	br	2180 <___vfprintf_internal_r+0xba4>
    2a80:	8080100c 	andi	r2,r16,64
    2a84:	10010126 	beq	r2,zero,2e8c <___vfprintf_internal_r+0x18b0>
    2a88:	d8c12d17 	ldw	r3,1204(sp)
    2a8c:	002d883a 	mov	r22,zero
    2a90:	1dc0000b 	ldhu	r23,0(r3)
    2a94:	18c00104 	addi	r3,r3,4
    2a98:	d8c12d15 	stw	r3,1204(sp)
    2a9c:	b805883a 	mov	r2,r23
    2aa0:	00c00044 	movi	r3,1
    2aa4:	d8012585 	stb	zero,1174(sp)
    2aa8:	003c4506 	br	1bc0 <___vfprintf_internal_r+0x5e4>
    2aac:	8080100c 	andi	r2,r16,64
    2ab0:	10010526 	beq	r2,zero,2ec8 <___vfprintf_internal_r+0x18ec>
    2ab4:	d9012d17 	ldw	r4,1204(sp)
    2ab8:	002d883a 	mov	r22,zero
    2abc:	0007883a 	mov	r3,zero
    2ac0:	25c0000b 	ldhu	r23,0(r4)
    2ac4:	21000104 	addi	r4,r4,4
    2ac8:	d9012d15 	stw	r4,1204(sp)
    2acc:	b805883a 	mov	r2,r23
    2ad0:	d8012585 	stb	zero,1174(sp)
    2ad4:	003c3a06 	br	1bc0 <___vfprintf_internal_r+0x5e4>
    2ad8:	d8812d17 	ldw	r2,1204(sp)
    2adc:	15800017 	ldw	r22,0(r2)
    2ae0:	15000117 	ldw	r20,4(r2)
    2ae4:	10800204 	addi	r2,r2,8
    2ae8:	d8812d15 	stw	r2,1204(sp)
    2aec:	dd813315 	stw	r22,1228(sp)
    2af0:	dd013415 	stw	r20,1232(sp)
    2af4:	003c5906 	br	1c5c <___vfprintf_internal_r+0x680>
    2af8:	00c00084 	movi	r3,2
    2afc:	d8012585 	stb	zero,1174(sp)
    2b00:	003c2f06 	br	1bc0 <___vfprintf_internal_r+0x5e4>
    2b04:	ac800007 	ldb	r18,0(r21)
    2b08:	003b1006 	br	174c <___vfprintf_internal_r+0x170>
    2b0c:	8080040c 	andi	r2,r16,16
    2b10:	1000091e 	bne	r2,zero,2b38 <___vfprintf_internal_r+0x155c>
    2b14:	8400100c 	andi	r16,r16,64
    2b18:	80000726 	beq	r16,zero,2b38 <___vfprintf_internal_r+0x155c>
    2b1c:	d8c12d17 	ldw	r3,1204(sp)
    2b20:	d9012c17 	ldw	r4,1200(sp)
    2b24:	18800017 	ldw	r2,0(r3)
    2b28:	18c00104 	addi	r3,r3,4
    2b2c:	d8c12d15 	stw	r3,1204(sp)
    2b30:	1100000d 	sth	r4,0(r2)
    2b34:	003adf06 	br	16b4 <___vfprintf_internal_r+0xd8>
    2b38:	d8c12d17 	ldw	r3,1204(sp)
    2b3c:	d9012c17 	ldw	r4,1200(sp)
    2b40:	18800017 	ldw	r2,0(r3)
    2b44:	18c00104 	addi	r3,r3,4
    2b48:	d8c12d15 	stw	r3,1204(sp)
    2b4c:	11000015 	stw	r4,0(r2)
    2b50:	003ad806 	br	16b4 <___vfprintf_internal_r+0xd8>
    2b54:	8080100c 	andi	r2,r16,64
    2b58:	1000c526 	beq	r2,zero,2e70 <___vfprintf_internal_r+0x1894>
    2b5c:	d8812d17 	ldw	r2,1204(sp)
    2b60:	15c0000f 	ldh	r23,0(r2)
    2b64:	10800104 	addi	r2,r2,4
    2b68:	d8812d15 	stw	r2,1204(sp)
    2b6c:	b82dd7fa 	srai	r22,r23,31
    2b70:	b005883a 	mov	r2,r22
    2b74:	003c0906 	br	1b9c <___vfprintf_internal_r+0x5c0>
    2b78:	4c800115 	stw	r18,4(r9)
    2b7c:	9211883a 	add	r8,r18,r8
    2b80:	18c00044 	addi	r3,r3,1
    2b84:	da011d15 	stw	r8,1140(sp)
    2b88:	d8c11c15 	stw	r3,1136(sp)
    2b8c:	008001c4 	movi	r2,7
    2b90:	10c14016 	blt	r2,r3,3094 <___vfprintf_internal_r+0x1ab8>
    2b94:	4a400204 	addi	r9,r9,8
    2b98:	d8813717 	ldw	r2,1244(sp)
    2b9c:	9ca7883a 	add	r19,r19,r18
    2ba0:	48800015 	stw	r2,0(r9)
    2ba4:	00800044 	movi	r2,1
    2ba8:	48800115 	stw	r2,4(r9)
    2bac:	4091883a 	add	r8,r8,r2
    2bb0:	1887883a 	add	r3,r3,r2
    2bb4:	da011d15 	stw	r8,1140(sp)
    2bb8:	d8c11c15 	stw	r3,1136(sp)
    2bbc:	008001c4 	movi	r2,7
    2bc0:	10c12c16 	blt	r2,r3,3074 <___vfprintf_internal_r+0x1a98>
    2bc4:	4a400204 	addi	r9,r9,8
    2bc8:	d9013217 	ldw	r4,1224(sp)
    2bcc:	da011d17 	ldw	r8,1140(sp)
    2bd0:	d8c11c17 	ldw	r3,1136(sp)
    2bd4:	24a5c83a 	sub	r18,r4,r18
    2bd8:	4cc00015 	stw	r19,0(r9)
    2bdc:	003fa506 	br	2a74 <___vfprintf_internal_r+0x1498>
    2be0:	04c00074 	movhi	r19,1
    2be4:	9cf67e04 	addi	r19,r19,-9736
    2be8:	003c2e06 	br	1ca4 <___vfprintf_internal_r+0x6c8>
    2bec:	d9412917 	ldw	r5,1188(sp)
    2bf0:	8809883a 	mov	r4,r17
    2bf4:	d9811b04 	addi	r6,sp,1132
    2bf8:	00015a80 	call	15a8 <__sprint_r>
    2bfc:	103bbd1e 	bne	r2,zero,1af4 <___vfprintf_internal_r+0x518>
    2c00:	da011d17 	ldw	r8,1140(sp)
    2c04:	da400404 	addi	r9,sp,16
    2c08:	003df606 	br	23e4 <___vfprintf_internal_r+0xe08>
    2c0c:	00800074 	movhi	r2,1
    2c10:	10b68d04 	addi	r2,r2,-9676
    2c14:	48800015 	stw	r2,0(r9)
    2c18:	00800044 	movi	r2,1
    2c1c:	48800115 	stw	r2,4(r9)
    2c20:	4091883a 	add	r8,r8,r2
    2c24:	1887883a 	add	r3,r3,r2
    2c28:	da011d15 	stw	r8,1140(sp)
    2c2c:	d8c11c15 	stw	r3,1136(sp)
    2c30:	008001c4 	movi	r2,7
    2c34:	10c0bc16 	blt	r2,r3,2f28 <___vfprintf_internal_r+0x194c>
    2c38:	4a400204 	addi	r9,r9,8
    2c3c:	9000041e 	bne	r18,zero,2c50 <___vfprintf_internal_r+0x1674>
    2c40:	d8c13217 	ldw	r3,1224(sp)
    2c44:	1800021e 	bne	r3,zero,2c50 <___vfprintf_internal_r+0x1674>
    2c48:	8080004c 	andi	r2,r16,1
    2c4c:	103d5226 	beq	r2,zero,2198 <___vfprintf_internal_r+0xbbc>
    2c50:	d8c11c17 	ldw	r3,1136(sp)
    2c54:	d9013717 	ldw	r4,1244(sp)
    2c58:	00800044 	movi	r2,1
    2c5c:	48800115 	stw	r2,4(r9)
    2c60:	49000015 	stw	r4,0(r9)
    2c64:	4091883a 	add	r8,r8,r2
    2c68:	1887883a 	add	r3,r3,r2
    2c6c:	da011d15 	stw	r8,1140(sp)
    2c70:	d8c11c15 	stw	r3,1136(sp)
    2c74:	008001c4 	movi	r2,7
    2c78:	10c14516 	blt	r2,r3,3190 <___vfprintf_internal_r+0x1bb4>
    2c7c:	4a400204 	addi	r9,r9,8
    2c80:	04a5c83a 	sub	r18,zero,r18
    2c84:	0480d70e 	bge	zero,r18,2fe4 <___vfprintf_internal_r+0x1a08>
    2c88:	05800404 	movi	r22,16
    2c8c:	05000074 	movhi	r20,1
    2c90:	a5369184 	addi	r20,r20,-9658
    2c94:	b480db0e 	bge	r22,r18,3004 <___vfprintf_internal_r+0x1a28>
    2c98:	05c001c4 	movi	r23,7
    2c9c:	df012917 	ldw	fp,1188(sp)
    2ca0:	00000306 	br	2cb0 <___vfprintf_internal_r+0x16d4>
    2ca4:	4a400204 	addi	r9,r9,8
    2ca8:	94bffc04 	addi	r18,r18,-16
    2cac:	b480d50e 	bge	r22,r18,3004 <___vfprintf_internal_r+0x1a28>
    2cb0:	4d000015 	stw	r20,0(r9)
    2cb4:	4d800115 	stw	r22,4(r9)
    2cb8:	42000404 	addi	r8,r8,16
    2cbc:	18c00044 	addi	r3,r3,1
    2cc0:	da011d15 	stw	r8,1140(sp)
    2cc4:	d8c11c15 	stw	r3,1136(sp)
    2cc8:	b8fff60e 	bge	r23,r3,2ca4 <___vfprintf_internal_r+0x16c8>
    2ccc:	8809883a 	mov	r4,r17
    2cd0:	e00b883a 	mov	r5,fp
    2cd4:	d9811b04 	addi	r6,sp,1132
    2cd8:	00015a80 	call	15a8 <__sprint_r>
    2cdc:	103b851e 	bne	r2,zero,1af4 <___vfprintf_internal_r+0x518>
    2ce0:	da011d17 	ldw	r8,1140(sp)
    2ce4:	d8c11c17 	ldw	r3,1136(sp)
    2ce8:	da400404 	addi	r9,sp,16
    2cec:	003fee06 	br	2ca8 <___vfprintf_internal_r+0x16cc>
    2cf0:	da413c15 	stw	r9,1264(sp)
    2cf4:	00084740 	call	8474 <__isnand>
    2cf8:	da413c17 	ldw	r9,1264(sp)
    2cfc:	10007e1e 	bne	r2,zero,2ef8 <___vfprintf_internal_r+0x191c>
    2d00:	00bfffc4 	movi	r2,-1
    2d04:	e0816a26 	beq	fp,r2,32b0 <___vfprintf_internal_r+0x1cd4>
    2d08:	008019c4 	movi	r2,103
    2d0c:	90816526 	beq	r18,r2,32a4 <___vfprintf_internal_r+0x1cc8>
    2d10:	008011c4 	movi	r2,71
    2d14:	90816326 	beq	r18,r2,32a4 <___vfprintf_internal_r+0x1cc8>
    2d18:	80c04014 	ori	r3,r16,256
    2d1c:	d8c12a15 	stw	r3,1192(sp)
    2d20:	a0016516 	blt	r20,zero,32b8 <___vfprintf_internal_r+0x1cdc>
    2d24:	d8012f05 	stb	zero,1212(sp)
    2d28:	00801984 	movi	r2,102
    2d2c:	9080f226 	beq	r18,r2,30f8 <___vfprintf_internal_r+0x1b1c>
    2d30:	00801184 	movi	r2,70
    2d34:	9080f026 	beq	r18,r2,30f8 <___vfprintf_internal_r+0x1b1c>
    2d38:	00801944 	movi	r2,101
    2d3c:	90818d26 	beq	r18,r2,3374 <___vfprintf_internal_r+0x1d98>
    2d40:	00801144 	movi	r2,69
    2d44:	90818b26 	beq	r18,r2,3374 <___vfprintf_internal_r+0x1d98>
    2d48:	e02f883a 	mov	r23,fp
    2d4c:	d8812404 	addi	r2,sp,1168
    2d50:	d8800115 	stw	r2,4(sp)
    2d54:	d8812304 	addi	r2,sp,1164
    2d58:	d8800215 	stw	r2,8(sp)
    2d5c:	d8812204 	addi	r2,sp,1160
    2d60:	ddc00015 	stw	r23,0(sp)
    2d64:	d8800315 	stw	r2,12(sp)
    2d68:	8809883a 	mov	r4,r17
    2d6c:	b00b883a 	mov	r5,r22
    2d70:	a00d883a 	mov	r6,r20
    2d74:	01c00084 	movi	r7,2
    2d78:	da413c15 	stw	r9,1264(sp)
    2d7c:	000382c0 	call	382c <_dtoa_r>
    2d80:	1027883a 	mov	r19,r2
    2d84:	008019c4 	movi	r2,103
    2d88:	da413c17 	ldw	r9,1264(sp)
    2d8c:	9081951e 	bne	r18,r2,33e4 <___vfprintf_internal_r+0x1e08>
    2d90:	8080004c 	andi	r2,r16,1
    2d94:	10017926 	beq	r2,zero,337c <___vfprintf_internal_r+0x1da0>
    2d98:	00801184 	movi	r2,70
    2d9c:	9dc7883a 	add	r3,r19,r23
    2da0:	9080e626 	beq	r18,r2,313c <___vfprintf_internal_r+0x1b60>
    2da4:	b009883a 	mov	r4,r22
    2da8:	a00b883a 	mov	r5,r20
    2dac:	000d883a 	mov	r6,zero
    2db0:	000f883a 	mov	r7,zero
    2db4:	d8c13b15 	stw	r3,1260(sp)
    2db8:	da413c15 	stw	r9,1264(sp)
    2dbc:	000a2740 	call	a274 <__eqdf2>
    2dc0:	d8c13b17 	ldw	r3,1260(sp)
    2dc4:	da413c17 	ldw	r9,1264(sp)
    2dc8:	10000726 	beq	r2,zero,2de8 <___vfprintf_internal_r+0x180c>
    2dcc:	d8812217 	ldw	r2,1160(sp)
    2dd0:	10c18a2e 	bgeu	r2,r3,33fc <___vfprintf_internal_r+0x1e20>
    2dd4:	01000c04 	movi	r4,48
    2dd8:	11000005 	stb	r4,0(r2)
    2ddc:	10800044 	addi	r2,r2,1
    2de0:	d8812215 	stw	r2,1160(sp)
    2de4:	10fffc1e 	bne	r2,r3,2dd8 <___vfprintf_internal_r+0x17fc>
    2de8:	1cc7c83a 	sub	r3,r3,r19
    2dec:	d8c13215 	stw	r3,1224(sp)
    2df0:	008019c4 	movi	r2,103
    2df4:	9080fa26 	beq	r18,r2,31e0 <___vfprintf_internal_r+0x1c04>
    2df8:	008011c4 	movi	r2,71
    2dfc:	9080f826 	beq	r18,r2,31e0 <___vfprintf_internal_r+0x1c04>
    2e00:	00801984 	movi	r2,102
    2e04:	90818e1e 	bne	r18,r2,3440 <___vfprintf_internal_r+0x1e64>
    2e08:	d8812417 	ldw	r2,1168(sp)
    2e0c:	d8812b15 	stw	r2,1196(sp)
    2e10:	00817c0e 	bge	zero,r2,3404 <___vfprintf_internal_r+0x1e28>
    2e14:	e000021e 	bne	fp,zero,2e20 <___vfprintf_internal_r+0x1844>
    2e18:	8400004c 	andi	r16,r16,1
    2e1c:	80000426 	beq	r16,zero,2e30 <___vfprintf_internal_r+0x1854>
    2e20:	d8812b17 	ldw	r2,1196(sp)
    2e24:	e2000044 	addi	r8,fp,1
    2e28:	1205883a 	add	r2,r2,r8
    2e2c:	d8812b15 	stw	r2,1196(sp)
    2e30:	d8812815 	stw	r2,1184(sp)
    2e34:	10010b16 	blt	r2,zero,3264 <___vfprintf_internal_r+0x1c88>
    2e38:	ddc12f07 	ldb	r23,1212(sp)
    2e3c:	b800e426 	beq	r23,zero,31d0 <___vfprintf_internal_r+0x1bf4>
    2e40:	00800b44 	movi	r2,45
    2e44:	d8812585 	stb	r2,1174(sp)
    2e48:	dc012a17 	ldw	r16,1192(sp)
    2e4c:	d8013115 	stw	zero,1220(sp)
    2e50:	003b7306 	br	1c20 <___vfprintf_internal_r+0x644>
    2e54:	d8812b17 	ldw	r2,1196(sp)
    2e58:	d8812815 	stw	r2,1184(sp)
    2e5c:	10005716 	blt	r2,zero,2fbc <___vfprintf_internal_r+0x19e0>
    2e60:	d8812583 	ldbu	r2,1174(sp)
    2e64:	ddc12d15 	stw	r23,1204(sp)
    2e68:	d8013115 	stw	zero,1220(sp)
    2e6c:	003b6806 	br	1c10 <___vfprintf_internal_r+0x634>
    2e70:	d8c12d17 	ldw	r3,1204(sp)
    2e74:	1dc00017 	ldw	r23,0(r3)
    2e78:	18c00104 	addi	r3,r3,4
    2e7c:	d8c12d15 	stw	r3,1204(sp)
    2e80:	b82dd7fa 	srai	r22,r23,31
    2e84:	b005883a 	mov	r2,r22
    2e88:	003b4406 	br	1b9c <___vfprintf_internal_r+0x5c0>
    2e8c:	d9012d17 	ldw	r4,1204(sp)
    2e90:	002d883a 	mov	r22,zero
    2e94:	00c00044 	movi	r3,1
    2e98:	25c00017 	ldw	r23,0(r4)
    2e9c:	21000104 	addi	r4,r4,4
    2ea0:	d9012d15 	stw	r4,1204(sp)
    2ea4:	b805883a 	mov	r2,r23
    2ea8:	d8012585 	stb	zero,1174(sp)
    2eac:	003b4406 	br	1bc0 <___vfprintf_internal_r+0x5e4>
    2eb0:	d9012d17 	ldw	r4,1204(sp)
    2eb4:	002d883a 	mov	r22,zero
    2eb8:	25c00017 	ldw	r23,0(r4)
    2ebc:	21000104 	addi	r4,r4,4
    2ec0:	d9012d15 	stw	r4,1204(sp)
    2ec4:	003bab06 	br	1d74 <___vfprintf_internal_r+0x798>
    2ec8:	d8812d17 	ldw	r2,1204(sp)
    2ecc:	002d883a 	mov	r22,zero
    2ed0:	0007883a 	mov	r3,zero
    2ed4:	15c00017 	ldw	r23,0(r2)
    2ed8:	10800104 	addi	r2,r2,4
    2edc:	d8812d15 	stw	r2,1204(sp)
    2ee0:	d8012585 	stb	zero,1174(sp)
    2ee4:	b805883a 	mov	r2,r23
    2ee8:	003b3506 	br	1bc0 <___vfprintf_internal_r+0x5e4>
    2eec:	00ffffc4 	movi	r3,-1
    2ef0:	b82b883a 	mov	r21,r23
    2ef4:	003a1606 	br	1750 <___vfprintf_internal_r+0x174>
    2ef8:	008011c4 	movi	r2,71
    2efc:	1480b116 	blt	r2,r18,31c4 <___vfprintf_internal_r+0x1be8>
    2f00:	04c00074 	movhi	r19,1
    2f04:	9cf67f04 	addi	r19,r19,-9732
    2f08:	00c000c4 	movi	r3,3
    2f0c:	00bfdfc4 	movi	r2,-129
    2f10:	80a0703a 	and	r16,r16,r2
    2f14:	d8c12815 	stw	r3,1184(sp)
    2f18:	d8812583 	ldbu	r2,1174(sp)
    2f1c:	d8c12b15 	stw	r3,1196(sp)
    2f20:	d8013115 	stw	zero,1220(sp)
    2f24:	003b3a06 	br	1c10 <___vfprintf_internal_r+0x634>
    2f28:	d9412917 	ldw	r5,1188(sp)
    2f2c:	8809883a 	mov	r4,r17
    2f30:	d9811b04 	addi	r6,sp,1132
    2f34:	00015a80 	call	15a8 <__sprint_r>
    2f38:	103aee1e 	bne	r2,zero,1af4 <___vfprintf_internal_r+0x518>
    2f3c:	dc812417 	ldw	r18,1168(sp)
    2f40:	da011d17 	ldw	r8,1140(sp)
    2f44:	da400404 	addi	r9,sp,16
    2f48:	003f3c06 	br	2c3c <___vfprintf_internal_r+0x1660>
    2f4c:	ad400044 	addi	r21,r21,1
    2f50:	84000814 	ori	r16,r16,32
    2f54:	14800047 	ldb	r18,1(r2)
    2f58:	0039fc06 	br	174c <___vfprintf_internal_r+0x170>
    2f5c:	d9412917 	ldw	r5,1188(sp)
    2f60:	8809883a 	mov	r4,r17
    2f64:	d9811b04 	addi	r6,sp,1132
    2f68:	00015a80 	call	15a8 <__sprint_r>
    2f6c:	103ae11e 	bne	r2,zero,1af4 <___vfprintf_internal_r+0x518>
    2f70:	da011d17 	ldw	r8,1140(sp)
    2f74:	da400404 	addi	r9,sp,16
    2f78:	003d2b06 	br	2428 <___vfprintf_internal_r+0xe4c>
    2f7c:	4d000015 	stw	r20,0(r9)
    2f80:	4c800115 	stw	r18,4(r9)
    2f84:	4491883a 	add	r8,r8,r18
    2f88:	18c00044 	addi	r3,r3,1
    2f8c:	da011d15 	stw	r8,1140(sp)
    2f90:	d8c11c15 	stw	r3,1136(sp)
    2f94:	008001c4 	movi	r2,7
    2f98:	10fcbd16 	blt	r2,r3,2290 <___vfprintf_internal_r+0xcb4>
    2f9c:	4a400204 	addi	r9,r9,8
    2fa0:	003cc206 	br	22ac <___vfprintf_internal_r+0xcd0>
    2fa4:	da413c15 	stw	r9,1264(sp)
    2fa8:	00086e80 	call	86e8 <strlen>
    2fac:	d8812b15 	stw	r2,1196(sp)
    2fb0:	d8812815 	stw	r2,1184(sp)
    2fb4:	da413c17 	ldw	r9,1264(sp)
    2fb8:	103fa90e 	bge	r2,zero,2e60 <___vfprintf_internal_r+0x1884>
    2fbc:	d8012815 	stw	zero,1184(sp)
    2fc0:	003fa706 	br	2e60 <___vfprintf_internal_r+0x1884>
    2fc4:	d9412917 	ldw	r5,1188(sp)
    2fc8:	8809883a 	mov	r4,r17
    2fcc:	d9811b04 	addi	r6,sp,1132
    2fd0:	00015a80 	call	15a8 <__sprint_r>
    2fd4:	103ac71e 	bne	r2,zero,1af4 <___vfprintf_internal_r+0x518>
    2fd8:	da011d17 	ldw	r8,1140(sp)
    2fdc:	d8c11c17 	ldw	r3,1136(sp)
    2fe0:	da400404 	addi	r9,sp,16
    2fe4:	d8813217 	ldw	r2,1224(sp)
    2fe8:	4cc00015 	stw	r19,0(r9)
    2fec:	48800115 	stw	r2,4(r9)
    2ff0:	4091883a 	add	r8,r8,r2
    2ff4:	003c6206 	br	2180 <___vfprintf_internal_r+0xba4>
    2ff8:	00800b44 	movi	r2,45
    2ffc:	d8812585 	stb	r2,1174(sp)
    3000:	003b2406 	br	1c94 <___vfprintf_internal_r+0x6b8>
    3004:	4d000015 	stw	r20,0(r9)
    3008:	4c800115 	stw	r18,4(r9)
    300c:	4491883a 	add	r8,r8,r18
    3010:	18c00044 	addi	r3,r3,1
    3014:	da011d15 	stw	r8,1140(sp)
    3018:	d8c11c15 	stw	r3,1136(sp)
    301c:	008001c4 	movi	r2,7
    3020:	10ffe816 	blt	r2,r3,2fc4 <___vfprintf_internal_r+0x19e8>
    3024:	4a400204 	addi	r9,r9,8
    3028:	003fee06 	br	2fe4 <___vfprintf_internal_r+0x1a08>
    302c:	d8c12b15 	stw	r3,1196(sp)
    3030:	00800184 	movi	r2,6
    3034:	10c0062e 	bgeu	r2,r3,3050 <___vfprintf_internal_r+0x1a74>
    3038:	d8812b15 	stw	r2,1196(sp)
    303c:	d8812815 	stw	r2,1184(sp)
    3040:	ddc12d15 	stw	r23,1204(sp)
    3044:	04c00074 	movhi	r19,1
    3048:	9cf68b04 	addi	r19,r19,-9684
    304c:	0039ca06 	br	1778 <___vfprintf_internal_r+0x19c>
    3050:	d8812b17 	ldw	r2,1196(sp)
    3054:	d8812815 	stw	r2,1184(sp)
    3058:	103ff90e 	bge	r2,zero,3040 <___vfprintf_internal_r+0x1a64>
    305c:	d8012815 	stw	zero,1184(sp)
    3060:	003ff706 	br	3040 <___vfprintf_internal_r+0x1a64>
    3064:	00800244 	movi	r2,9
    3068:	15fdaa36 	bltu	r2,r23,2714 <___vfprintf_internal_r+0x1138>
    306c:	dd010e04 	addi	r20,sp,1080
    3070:	003dc606 	br	278c <___vfprintf_internal_r+0x11b0>
    3074:	d9412917 	ldw	r5,1188(sp)
    3078:	8809883a 	mov	r4,r17
    307c:	d9811b04 	addi	r6,sp,1132
    3080:	00015a80 	call	15a8 <__sprint_r>
    3084:	103a9b1e 	bne	r2,zero,1af4 <___vfprintf_internal_r+0x518>
    3088:	dc812417 	ldw	r18,1168(sp)
    308c:	da400404 	addi	r9,sp,16
    3090:	003ecd06 	br	2bc8 <___vfprintf_internal_r+0x15ec>
    3094:	d9412917 	ldw	r5,1188(sp)
    3098:	8809883a 	mov	r4,r17
    309c:	d9811b04 	addi	r6,sp,1132
    30a0:	00015a80 	call	15a8 <__sprint_r>
    30a4:	103a931e 	bne	r2,zero,1af4 <___vfprintf_internal_r+0x518>
    30a8:	dc812417 	ldw	r18,1168(sp)
    30ac:	da011d17 	ldw	r8,1140(sp)
    30b0:	d8c11c17 	ldw	r3,1136(sp)
    30b4:	da400404 	addi	r9,sp,16
    30b8:	003eb706 	br	2b98 <___vfprintf_internal_r+0x15bc>
    30bc:	d9412917 	ldw	r5,1188(sp)
    30c0:	8809883a 	mov	r4,r17
    30c4:	d9811b04 	addi	r6,sp,1132
    30c8:	00015a80 	call	15a8 <__sprint_r>
    30cc:	103a891e 	bne	r2,zero,1af4 <___vfprintf_internal_r+0x518>
    30d0:	dc812417 	ldw	r18,1168(sp)
    30d4:	da011d17 	ldw	r8,1140(sp)
    30d8:	da400404 	addi	r9,sp,16
    30dc:	003dc206 	br	27e8 <___vfprintf_internal_r+0x120c>
    30e0:	df012815 	stw	fp,1184(sp)
    30e4:	d8812583 	ldbu	r2,1174(sp)
    30e8:	df012b15 	stw	fp,1196(sp)
    30ec:	ddc12d15 	stw	r23,1204(sp)
    30f0:	d8013115 	stw	zero,1220(sp)
    30f4:	003ac606 	br	1c10 <___vfprintf_internal_r+0x634>
    30f8:	d8812404 	addi	r2,sp,1168
    30fc:	d8800115 	stw	r2,4(sp)
    3100:	d8812304 	addi	r2,sp,1164
    3104:	d8800215 	stw	r2,8(sp)
    3108:	d8812204 	addi	r2,sp,1160
    310c:	df000015 	stw	fp,0(sp)
    3110:	d8800315 	stw	r2,12(sp)
    3114:	8809883a 	mov	r4,r17
    3118:	b00b883a 	mov	r5,r22
    311c:	a00d883a 	mov	r6,r20
    3120:	01c000c4 	movi	r7,3
    3124:	da413c15 	stw	r9,1264(sp)
    3128:	000382c0 	call	382c <_dtoa_r>
    312c:	da413c17 	ldw	r9,1264(sp)
    3130:	1027883a 	mov	r19,r2
    3134:	1707883a 	add	r3,r2,fp
    3138:	e02f883a 	mov	r23,fp
    313c:	99000007 	ldb	r4,0(r19)
    3140:	00800c04 	movi	r2,48
    3144:	20800326 	beq	r4,r2,3154 <___vfprintf_internal_r+0x1b78>
    3148:	da812417 	ldw	r10,1168(sp)
    314c:	1a87883a 	add	r3,r3,r10
    3150:	003f1406 	br	2da4 <___vfprintf_internal_r+0x17c8>
    3154:	b009883a 	mov	r4,r22
    3158:	a00b883a 	mov	r5,r20
    315c:	000d883a 	mov	r6,zero
    3160:	000f883a 	mov	r7,zero
    3164:	d8c13b15 	stw	r3,1260(sp)
    3168:	da413c15 	stw	r9,1264(sp)
    316c:	000a2d00 	call	a2d0 <__nedf2>
    3170:	d8c13b17 	ldw	r3,1260(sp)
    3174:	da413c17 	ldw	r9,1264(sp)
    3178:	103ff326 	beq	r2,zero,3148 <___vfprintf_internal_r+0x1b6c>
    317c:	00800044 	movi	r2,1
    3180:	15d5c83a 	sub	r10,r2,r23
    3184:	da812415 	stw	r10,1168(sp)
    3188:	1a87883a 	add	r3,r3,r10
    318c:	003f0506 	br	2da4 <___vfprintf_internal_r+0x17c8>
    3190:	d9412917 	ldw	r5,1188(sp)
    3194:	8809883a 	mov	r4,r17
    3198:	d9811b04 	addi	r6,sp,1132
    319c:	00015a80 	call	15a8 <__sprint_r>
    31a0:	103a541e 	bne	r2,zero,1af4 <___vfprintf_internal_r+0x518>
    31a4:	dc812417 	ldw	r18,1168(sp)
    31a8:	da011d17 	ldw	r8,1140(sp)
    31ac:	d8c11c17 	ldw	r3,1136(sp)
    31b0:	da400404 	addi	r9,sp,16
    31b4:	003eb206 	br	2c80 <___vfprintf_internal_r+0x16a4>
    31b8:	b82b883a 	mov	r21,r23
    31bc:	0007883a 	mov	r3,zero
    31c0:	00396306 	br	1750 <___vfprintf_internal_r+0x174>
    31c4:	04c00074 	movhi	r19,1
    31c8:	9cf68004 	addi	r19,r19,-9728
    31cc:	003f4e06 	br	2f08 <___vfprintf_internal_r+0x192c>
    31d0:	d8812583 	ldbu	r2,1174(sp)
    31d4:	dc012a17 	ldw	r16,1192(sp)
    31d8:	d8013115 	stw	zero,1220(sp)
    31dc:	003a8c06 	br	1c10 <___vfprintf_internal_r+0x634>
    31e0:	d8812417 	ldw	r2,1168(sp)
    31e4:	d8812b15 	stw	r2,1196(sp)
    31e8:	1029883a 	mov	r20,r2
    31ec:	00bfff44 	movi	r2,-3
    31f0:	a0800116 	blt	r20,r2,31f8 <___vfprintf_internal_r+0x1c1c>
    31f4:	e5001d0e 	bge	fp,r20,326c <___vfprintf_internal_r+0x1c90>
    31f8:	94bfff84 	addi	r18,r18,-2
    31fc:	a53fffc4 	addi	r20,r20,-1
    3200:	dd012415 	stw	r20,1168(sp)
    3204:	dc811fc5 	stb	r18,1151(sp)
    3208:	a0007216 	blt	r20,zero,33d4 <___vfprintf_internal_r+0x1df8>
    320c:	00800ac4 	movi	r2,43
    3210:	d8812005 	stb	r2,1152(sp)
    3214:	00800244 	movi	r2,9
    3218:	15003516 	blt	r2,r20,32f0 <___vfprintf_internal_r+0x1d14>
    321c:	00800c04 	movi	r2,48
    3220:	a5000c04 	addi	r20,r20,48
    3224:	d8812045 	stb	r2,1153(sp)
    3228:	dd012085 	stb	r20,1154(sp)
    322c:	d8c120c4 	addi	r3,sp,1155
    3230:	d8811fc4 	addi	r2,sp,1151
    3234:	1885c83a 	sub	r2,r3,r2
    3238:	d8c13217 	ldw	r3,1224(sp)
    323c:	d8813515 	stw	r2,1236(sp)
    3240:	1885883a 	add	r2,r3,r2
    3244:	d8812b15 	stw	r2,1196(sp)
    3248:	00800044 	movi	r2,1
    324c:	10c0580e 	bge	r2,r3,33b0 <___vfprintf_internal_r+0x1dd4>
    3250:	d8812b17 	ldw	r2,1196(sp)
    3254:	10800044 	addi	r2,r2,1
    3258:	d8812b15 	stw	r2,1196(sp)
    325c:	d8812815 	stw	r2,1184(sp)
    3260:	103ef50e 	bge	r2,zero,2e38 <___vfprintf_internal_r+0x185c>
    3264:	d8012815 	stw	zero,1184(sp)
    3268:	003ef306 	br	2e38 <___vfprintf_internal_r+0x185c>
    326c:	d8812b17 	ldw	r2,1196(sp)
    3270:	d8c13217 	ldw	r3,1224(sp)
    3274:	10c01416 	blt	r2,r3,32c8 <___vfprintf_internal_r+0x1cec>
    3278:	8400004c 	andi	r16,r16,1
    327c:	80000326 	beq	r16,zero,328c <___vfprintf_internal_r+0x1cb0>
    3280:	d8812b17 	ldw	r2,1196(sp)
    3284:	10800044 	addi	r2,r2,1
    3288:	d8812b15 	stw	r2,1196(sp)
    328c:	d8812815 	stw	r2,1184(sp)
    3290:	10001416 	blt	r2,zero,32e4 <___vfprintf_internal_r+0x1d08>
    3294:	048019c4 	movi	r18,103
    3298:	003ee706 	br	2e38 <___vfprintf_internal_r+0x185c>
    329c:	d8012815 	stw	zero,1184(sp)
    32a0:	003b1a06 	br	1f0c <___vfprintf_internal_r+0x930>
    32a4:	e03e9c1e 	bne	fp,zero,2d18 <___vfprintf_internal_r+0x173c>
    32a8:	07000044 	movi	fp,1
    32ac:	003e9a06 	br	2d18 <___vfprintf_internal_r+0x173c>
    32b0:	07000184 	movi	fp,6
    32b4:	003e9806 	br	2d18 <___vfprintf_internal_r+0x173c>
    32b8:	00c00b44 	movi	r3,45
    32bc:	a520003c 	xorhi	r20,r20,32768
    32c0:	d8c12f05 	stb	r3,1212(sp)
    32c4:	003e9806 	br	2d28 <___vfprintf_internal_r+0x174c>
    32c8:	05003f0e 	bge	zero,r20,33c8 <___vfprintf_internal_r+0x1dec>
    32cc:	05000044 	movi	r20,1
    32d0:	d8c13217 	ldw	r3,1224(sp)
    32d4:	a0e9883a 	add	r20,r20,r3
    32d8:	dd012b15 	stw	r20,1196(sp)
    32dc:	dd012815 	stw	r20,1184(sp)
    32e0:	a03fec0e 	bge	r20,zero,3294 <___vfprintf_internal_r+0x1cb8>
    32e4:	d8012815 	stw	zero,1184(sp)
    32e8:	048019c4 	movi	r18,103
    32ec:	003ed206 	br	2e38 <___vfprintf_internal_r+0x185c>
    32f0:	d8c11f84 	addi	r3,sp,1150
    32f4:	102f883a 	mov	r23,r2
    32f8:	4839883a 	mov	fp,r9
    32fc:	a009883a 	mov	r4,r20
    3300:	01400284 	movi	r5,10
    3304:	182d883a 	mov	r22,r3
    3308:	000a7d80 	call	a7d8 <__modsi3>
    330c:	10800c04 	addi	r2,r2,48
    3310:	a009883a 	mov	r4,r20
    3314:	b0800005 	stb	r2,0(r22)
    3318:	01400284 	movi	r5,10
    331c:	000a7880 	call	a788 <__divsi3>
    3320:	1029883a 	mov	r20,r2
    3324:	b0ffffc4 	addi	r3,r22,-1
    3328:	b8bff416 	blt	r23,r2,32fc <___vfprintf_internal_r+0x1d20>
    332c:	11400c04 	addi	r5,r2,48
    3330:	b17fffc5 	stb	r5,-1(r22)
    3334:	d8811fc4 	addi	r2,sp,1151
    3338:	e013883a 	mov	r9,fp
    333c:	18803e2e 	bgeu	r3,r2,3438 <___vfprintf_internal_r+0x1e5c>
    3340:	b007883a 	mov	r3,r22
    3344:	d9012044 	addi	r4,sp,1153
    3348:	00000206 	br	3354 <___vfprintf_internal_r+0x1d78>
    334c:	19400003 	ldbu	r5,0(r3)
    3350:	18c00044 	addi	r3,r3,1
    3354:	21400005 	stb	r5,0(r4)
    3358:	21000044 	addi	r4,r4,1
    335c:	10fffb1e 	bne	r2,r3,334c <___vfprintf_internal_r+0x1d70>
    3360:	d8c12004 	addi	r3,sp,1152
    3364:	1d87c83a 	sub	r3,r3,r22
    3368:	d9012044 	addi	r4,sp,1153
    336c:	20c7883a 	add	r3,r4,r3
    3370:	003fb006 	br	3234 <___vfprintf_internal_r+0x1c58>
    3374:	e5c00044 	addi	r23,fp,1
    3378:	003e7406 	br	2d4c <___vfprintf_internal_r+0x1770>
    337c:	d8c12217 	ldw	r3,1160(sp)
    3380:	003e9906 	br	2de8 <___vfprintf_internal_r+0x180c>
    3384:	d9012d17 	ldw	r4,1204(sp)
    3388:	ac800043 	ldbu	r18,1(r21)
    338c:	b82b883a 	mov	r21,r23
    3390:	20c00017 	ldw	r3,0(r4)
    3394:	20800104 	addi	r2,r4,4
    3398:	d8812d15 	stw	r2,1204(sp)
    339c:	18002116 	blt	r3,zero,3424 <___vfprintf_internal_r+0x1e48>
    33a0:	94803fcc 	andi	r18,r18,255
    33a4:	9480201c 	xori	r18,r18,128
    33a8:	94bfe004 	addi	r18,r18,-128
    33ac:	0038e706 	br	174c <___vfprintf_internal_r+0x170>
    33b0:	80a0703a 	and	r16,r16,r2
    33b4:	803fa61e 	bne	r16,zero,3250 <___vfprintf_internal_r+0x1c74>
    33b8:	d8812b17 	ldw	r2,1196(sp)
    33bc:	d8812815 	stw	r2,1184(sp)
    33c0:	103e9d0e 	bge	r2,zero,2e38 <___vfprintf_internal_r+0x185c>
    33c4:	003fa706 	br	3264 <___vfprintf_internal_r+0x1c88>
    33c8:	00800084 	movi	r2,2
    33cc:	1529c83a 	sub	r20,r2,r20
    33d0:	003fbf06 	br	32d0 <___vfprintf_internal_r+0x1cf4>
    33d4:	00800b44 	movi	r2,45
    33d8:	0529c83a 	sub	r20,zero,r20
    33dc:	d8812005 	stb	r2,1152(sp)
    33e0:	003f8c06 	br	3214 <___vfprintf_internal_r+0x1c38>
    33e4:	008011c4 	movi	r2,71
    33e8:	90be6926 	beq	r18,r2,2d90 <___vfprintf_internal_r+0x17b4>
    33ec:	003e6a06 	br	2d98 <___vfprintf_internal_r+0x17bc>
    33f0:	00bfffc4 	movi	r2,-1
    33f4:	d8812c15 	stw	r2,1200(sp)
    33f8:	0039ad06 	br	1ab0 <___vfprintf_internal_r+0x4d4>
    33fc:	1007883a 	mov	r3,r2
    3400:	003e7906 	br	2de8 <___vfprintf_internal_r+0x180c>
    3404:	e000021e 	bne	fp,zero,3410 <___vfprintf_internal_r+0x1e34>
    3408:	8400004c 	andi	r16,r16,1
    340c:	80000e26 	beq	r16,zero,3448 <___vfprintf_internal_r+0x1e6c>
    3410:	e7000084 	addi	fp,fp,2
    3414:	df012b15 	stw	fp,1196(sp)
    3418:	df012815 	stw	fp,1184(sp)
    341c:	e03e860e 	bge	fp,zero,2e38 <___vfprintf_internal_r+0x185c>
    3420:	003f9006 	br	3264 <___vfprintf_internal_r+0x1c88>
    3424:	94803fcc 	andi	r18,r18,255
    3428:	9480201c 	xori	r18,r18,128
    342c:	00ffffc4 	movi	r3,-1
    3430:	94bfe004 	addi	r18,r18,-128
    3434:	0038c506 	br	174c <___vfprintf_internal_r+0x170>
    3438:	d8c12044 	addi	r3,sp,1153
    343c:	003f7d06 	br	3234 <___vfprintf_internal_r+0x1c58>
    3440:	dd012417 	ldw	r20,1168(sp)
    3444:	003f6d06 	br	31fc <___vfprintf_internal_r+0x1c20>
    3448:	00c00044 	movi	r3,1
    344c:	d8c12815 	stw	r3,1184(sp)
    3450:	d8c12b15 	stw	r3,1196(sp)
    3454:	003e7806 	br	2e38 <___vfprintf_internal_r+0x185c>

00003458 <__vfprintf_internal>:
    3458:	00800074 	movhi	r2,1
    345c:	10beb504 	addi	r2,r2,-1324
    3460:	2007883a 	mov	r3,r4
    3464:	11000017 	ldw	r4,0(r2)
    3468:	2805883a 	mov	r2,r5
    346c:	300f883a 	mov	r7,r6
    3470:	180b883a 	mov	r5,r3
    3474:	100d883a 	mov	r6,r2
    3478:	00015dc1 	jmpi	15dc <___vfprintf_internal_r>

0000347c <__swsetup_r>:
    347c:	00800074 	movhi	r2,1
    3480:	10beb504 	addi	r2,r2,-1324
    3484:	10800017 	ldw	r2,0(r2)
    3488:	defffd04 	addi	sp,sp,-12
    348c:	dc400115 	stw	r17,4(sp)
    3490:	dc000015 	stw	r16,0(sp)
    3494:	dfc00215 	stw	ra,8(sp)
    3498:	2023883a 	mov	r17,r4
    349c:	2821883a 	mov	r16,r5
    34a0:	10000226 	beq	r2,zero,34ac <__swsetup_r+0x30>
    34a4:	10c00e17 	ldw	r3,56(r2)
    34a8:	18003d26 	beq	r3,zero,35a0 <__swsetup_r+0x124>
    34ac:	8080030b 	ldhu	r2,12(r16)
    34b0:	10c0020c 	andi	r3,r2,8
    34b4:	18ffffcc 	andi	r3,r3,65535
    34b8:	18e0001c 	xori	r3,r3,32768
    34bc:	18e00004 	addi	r3,r3,-32768
    34c0:	18001226 	beq	r3,zero,350c <__swsetup_r+0x90>
    34c4:	80c00417 	ldw	r3,16(r16)
    34c8:	18001f26 	beq	r3,zero,3548 <__swsetup_r+0xcc>
    34cc:	1100004c 	andi	r4,r2,1
    34d0:	2000261e 	bne	r4,zero,356c <__swsetup_r+0xf0>
    34d4:	1080008c 	andi	r2,r2,2
    34d8:	10bfffcc 	andi	r2,r2,65535
    34dc:	10a0001c 	xori	r2,r2,32768
    34e0:	10a00004 	addi	r2,r2,-32768
    34e4:	1000311e 	bne	r2,zero,35ac <__swsetup_r+0x130>
    34e8:	80800517 	ldw	r2,20(r16)
    34ec:	80800215 	stw	r2,8(r16)
    34f0:	18002326 	beq	r3,zero,3580 <__swsetup_r+0x104>
    34f4:	0005883a 	mov	r2,zero
    34f8:	dfc00217 	ldw	ra,8(sp)
    34fc:	dc400117 	ldw	r17,4(sp)
    3500:	dc000017 	ldw	r16,0(sp)
    3504:	dec00304 	addi	sp,sp,12
    3508:	f800283a 	ret
    350c:	10c0040c 	andi	r3,r2,16
    3510:	18ffffcc 	andi	r3,r3,65535
    3514:	18e0001c 	xori	r3,r3,32768
    3518:	18e00004 	addi	r3,r3,-32768
    351c:	18001e26 	beq	r3,zero,3598 <__swsetup_r+0x11c>
    3520:	10c0010c 	andi	r3,r2,4
    3524:	18ffffcc 	andi	r3,r3,65535
    3528:	18e0001c 	xori	r3,r3,32768
    352c:	18e00004 	addi	r3,r3,-32768
    3530:	1800211e 	bne	r3,zero,35b8 <__swsetup_r+0x13c>
    3534:	80c00417 	ldw	r3,16(r16)
    3538:	11400214 	ori	r5,r2,8
    353c:	8140030d 	sth	r5,12(r16)
    3540:	2805883a 	mov	r2,r5
    3544:	183fe11e 	bne	r3,zero,34cc <__swsetup_r+0x50>
    3548:	1140a00c 	andi	r5,r2,640
    354c:	01008004 	movi	r4,512
    3550:	293fde26 	beq	r5,r4,34cc <__swsetup_r+0x50>
    3554:	8809883a 	mov	r4,r17
    3558:	800b883a 	mov	r5,r16
    355c:	0005e780 	call	5e78 <__smakebuf_r>
    3560:	8080030b 	ldhu	r2,12(r16)
    3564:	80c00417 	ldw	r3,16(r16)
    3568:	003fd806 	br	34cc <__swsetup_r+0x50>
    356c:	80800517 	ldw	r2,20(r16)
    3570:	80000215 	stw	zero,8(r16)
    3574:	0085c83a 	sub	r2,zero,r2
    3578:	80800615 	stw	r2,24(r16)
    357c:	183fdd1e 	bne	r3,zero,34f4 <__swsetup_r+0x78>
    3580:	8080030b 	ldhu	r2,12(r16)
    3584:	1080200c 	andi	r2,r2,128
    3588:	10bfffcc 	andi	r2,r2,65535
    358c:	10a0001c 	xori	r2,r2,32768
    3590:	10a00004 	addi	r2,r2,-32768
    3594:	103fd826 	beq	r2,zero,34f8 <__swsetup_r+0x7c>
    3598:	00bfffc4 	movi	r2,-1
    359c:	003fd606 	br	34f8 <__swsetup_r+0x7c>
    35a0:	1009883a 	mov	r4,r2
    35a4:	00051040 	call	5104 <__sinit>
    35a8:	003fc006 	br	34ac <__swsetup_r+0x30>
    35ac:	0005883a 	mov	r2,zero
    35b0:	80800215 	stw	r2,8(r16)
    35b4:	003fce06 	br	34f0 <__swsetup_r+0x74>
    35b8:	81400c17 	ldw	r5,48(r16)
    35bc:	28000626 	beq	r5,zero,35d8 <__swsetup_r+0x15c>
    35c0:	80c01004 	addi	r3,r16,64
    35c4:	28c00326 	beq	r5,r3,35d4 <__swsetup_r+0x158>
    35c8:	8809883a 	mov	r4,r17
    35cc:	00054880 	call	5488 <_free_r>
    35d0:	8080030b 	ldhu	r2,12(r16)
    35d4:	80000c15 	stw	zero,48(r16)
    35d8:	80c00417 	ldw	r3,16(r16)
    35dc:	013ff6c4 	movi	r4,-37
    35e0:	2084703a 	and	r2,r4,r2
    35e4:	80000115 	stw	zero,4(r16)
    35e8:	80c00015 	stw	r3,0(r16)
    35ec:	003fd206 	br	3538 <__swsetup_r+0xbc>

000035f0 <quorem>:
    35f0:	defff204 	addi	sp,sp,-56
    35f4:	dd000815 	stw	r20,32(sp)
    35f8:	20800417 	ldw	r2,16(r4)
    35fc:	2d000417 	ldw	r20,16(r5)
    3600:	dcc00715 	stw	r19,28(sp)
    3604:	dfc00d15 	stw	ra,52(sp)
    3608:	df000c15 	stw	fp,48(sp)
    360c:	ddc00b15 	stw	r23,44(sp)
    3610:	dd800a15 	stw	r22,40(sp)
    3614:	dd400915 	stw	r21,36(sp)
    3618:	dc800615 	stw	r18,24(sp)
    361c:	dc400515 	stw	r17,20(sp)
    3620:	dc000415 	stw	r16,16(sp)
    3624:	d9400015 	stw	r5,0(sp)
    3628:	2027883a 	mov	r19,r4
    362c:	15007d16 	blt	r2,r20,3824 <quorem+0x234>
    3630:	a0800104 	addi	r2,r20,4
    3634:	1085883a 	add	r2,r2,r2
    3638:	1085883a 	add	r2,r2,r2
    363c:	28ad883a 	add	r22,r5,r2
    3640:	2085883a 	add	r2,r4,r2
    3644:	10800017 	ldw	r2,0(r2)
    3648:	b1400017 	ldw	r5,0(r22)
    364c:	a53fffc4 	addi	r20,r20,-1
    3650:	1009883a 	mov	r4,r2
    3654:	29400044 	addi	r5,r5,1
    3658:	d8800115 	stw	r2,4(sp)
    365c:	000a8340 	call	a834 <__udivsi3>
    3660:	1025883a 	mov	r18,r2
    3664:	d8800017 	ldw	r2,0(sp)
    3668:	9f000504 	addi	fp,r19,20
    366c:	14000504 	addi	r16,r2,20
    3670:	90003626 	beq	r18,zero,374c <quorem+0x15c>
    3674:	802b883a 	mov	r21,r16
    3678:	e023883a 	mov	r17,fp
    367c:	0007883a 	mov	r3,zero
    3680:	002f883a 	mov	r23,zero
    3684:	a9800017 	ldw	r6,0(r21)
    3688:	900b883a 	mov	r5,r18
    368c:	d8c00315 	stw	r3,12(sp)
    3690:	313fffcc 	andi	r4,r6,65535
    3694:	d9800215 	stw	r6,8(sp)
    3698:	000a8440 	call	a844 <__mulsi3>
    369c:	d9800217 	ldw	r6,8(sp)
    36a0:	d8c00317 	ldw	r3,12(sp)
    36a4:	900b883a 	mov	r5,r18
    36a8:	3008d43a 	srli	r4,r6,16
    36ac:	1887883a 	add	r3,r3,r2
    36b0:	d8c00315 	stw	r3,12(sp)
    36b4:	000a8440 	call	a844 <__mulsi3>
    36b8:	89400017 	ldw	r5,0(r17)
    36bc:	d8c00317 	ldw	r3,12(sp)
    36c0:	ad400104 	addi	r21,r21,4
    36c4:	293fffcc 	andi	r4,r5,65535
    36c8:	1810d43a 	srli	r8,r3,16
    36cc:	25c9883a 	add	r4,r4,r23
    36d0:	18ffffcc 	andi	r3,r3,65535
    36d4:	20c9c83a 	sub	r4,r4,r3
    36d8:	280cd43a 	srli	r6,r5,16
    36dc:	4085883a 	add	r2,r8,r2
    36e0:	2007d43a 	srai	r3,r4,16
    36e4:	117fffcc 	andi	r5,r2,65535
    36e8:	314bc83a 	sub	r5,r6,r5
    36ec:	28cb883a 	add	r5,r5,r3
    36f0:	8940008d 	sth	r5,2(r17)
    36f4:	8900000d 	sth	r4,0(r17)
    36f8:	1006d43a 	srli	r3,r2,16
    36fc:	282fd43a 	srai	r23,r5,16
    3700:	8c400104 	addi	r17,r17,4
    3704:	b57fdf2e 	bgeu	r22,r21,3684 <quorem+0x94>
    3708:	d8c00117 	ldw	r3,4(sp)
    370c:	18000f1e 	bne	r3,zero,374c <quorem+0x15c>
    3710:	a0800144 	addi	r2,r20,5
    3714:	1085883a 	add	r2,r2,r2
    3718:	1085883a 	add	r2,r2,r2
    371c:	9887883a 	add	r3,r19,r2
    3720:	18bfff04 	addi	r2,r3,-4
    3724:	e080082e 	bgeu	fp,r2,3748 <quorem+0x158>
    3728:	18ffff17 	ldw	r3,-4(r3)
    372c:	18000326 	beq	r3,zero,373c <quorem+0x14c>
    3730:	00000506 	br	3748 <quorem+0x158>
    3734:	10c00017 	ldw	r3,0(r2)
    3738:	1800031e 	bne	r3,zero,3748 <quorem+0x158>
    373c:	10bfff04 	addi	r2,r2,-4
    3740:	a53fffc4 	addi	r20,r20,-1
    3744:	e0bffb36 	bltu	fp,r2,3734 <quorem+0x144>
    3748:	9d000415 	stw	r20,16(r19)
    374c:	d9400017 	ldw	r5,0(sp)
    3750:	9809883a 	mov	r4,r19
    3754:	00075900 	call	7590 <__mcmp>
    3758:	10002516 	blt	r2,zero,37f0 <quorem+0x200>
    375c:	94800044 	addi	r18,r18,1
    3760:	e007883a 	mov	r3,fp
    3764:	000d883a 	mov	r6,zero
    3768:	18800017 	ldw	r2,0(r3)
    376c:	82000017 	ldw	r8,0(r16)
    3770:	84000104 	addi	r16,r16,4
    3774:	11ffffcc 	andi	r7,r2,65535
    3778:	413fffcc 	andi	r4,r8,65535
    377c:	398d883a 	add	r6,r7,r6
    3780:	310fc83a 	sub	r7,r6,r4
    3784:	4010d43a 	srli	r8,r8,16
    3788:	100cd43a 	srli	r6,r2,16
    378c:	3809d43a 	srai	r4,r7,16
    3790:	19c0000d 	sth	r7,0(r3)
    3794:	320dc83a 	sub	r6,r6,r8
    3798:	310d883a 	add	r6,r6,r4
    379c:	1980008d 	sth	r6,2(r3)
    37a0:	300dd43a 	srai	r6,r6,16
    37a4:	18c00104 	addi	r3,r3,4
    37a8:	b43fef2e 	bgeu	r22,r16,3768 <quorem+0x178>
    37ac:	a0800144 	addi	r2,r20,5
    37b0:	1085883a 	add	r2,r2,r2
    37b4:	1085883a 	add	r2,r2,r2
    37b8:	9885883a 	add	r2,r19,r2
    37bc:	10c00017 	ldw	r3,0(r2)
    37c0:	18000b1e 	bne	r3,zero,37f0 <quorem+0x200>
    37c4:	10ffff04 	addi	r3,r2,-4
    37c8:	e0c0082e 	bgeu	fp,r3,37ec <quorem+0x1fc>
    37cc:	10bfff17 	ldw	r2,-4(r2)
    37d0:	10000326 	beq	r2,zero,37e0 <quorem+0x1f0>
    37d4:	00000506 	br	37ec <quorem+0x1fc>
    37d8:	18800017 	ldw	r2,0(r3)
    37dc:	1000031e 	bne	r2,zero,37ec <quorem+0x1fc>
    37e0:	18ffff04 	addi	r3,r3,-4
    37e4:	a53fffc4 	addi	r20,r20,-1
    37e8:	e0fffb36 	bltu	fp,r3,37d8 <quorem+0x1e8>
    37ec:	9d000415 	stw	r20,16(r19)
    37f0:	9005883a 	mov	r2,r18
    37f4:	dfc00d17 	ldw	ra,52(sp)
    37f8:	df000c17 	ldw	fp,48(sp)
    37fc:	ddc00b17 	ldw	r23,44(sp)
    3800:	dd800a17 	ldw	r22,40(sp)
    3804:	dd400917 	ldw	r21,36(sp)
    3808:	dd000817 	ldw	r20,32(sp)
    380c:	dcc00717 	ldw	r19,28(sp)
    3810:	dc800617 	ldw	r18,24(sp)
    3814:	dc400517 	ldw	r17,20(sp)
    3818:	dc000417 	ldw	r16,16(sp)
    381c:	dec00e04 	addi	sp,sp,56
    3820:	f800283a 	ret
    3824:	0005883a 	mov	r2,zero
    3828:	003ff206 	br	37f4 <quorem+0x204>

0000382c <_dtoa_r>:
    382c:	20801017 	ldw	r2,64(r4)
    3830:	deffdf04 	addi	sp,sp,-132
    3834:	dcc01a15 	stw	r19,104(sp)
    3838:	dc801915 	stw	r18,100(sp)
    383c:	dc401815 	stw	r17,96(sp)
    3840:	dc001715 	stw	r16,92(sp)
    3844:	dfc02015 	stw	ra,128(sp)
    3848:	df001f15 	stw	fp,124(sp)
    384c:	ddc01e15 	stw	r23,120(sp)
    3850:	dd801d15 	stw	r22,116(sp)
    3854:	dd401c15 	stw	r21,112(sp)
    3858:	dd001b15 	stw	r20,108(sp)
    385c:	d9400315 	stw	r5,12(sp)
    3860:	d9c00415 	stw	r7,16(sp)
    3864:	2021883a 	mov	r16,r4
    3868:	3025883a 	mov	r18,r6
    386c:	dcc02317 	ldw	r19,140(sp)
    3870:	3023883a 	mov	r17,r6
    3874:	10000826 	beq	r2,zero,3898 <_dtoa_r+0x6c>
    3878:	20c01117 	ldw	r3,68(r4)
    387c:	01800044 	movi	r6,1
    3880:	100b883a 	mov	r5,r2
    3884:	30cc983a 	sll	r6,r6,r3
    3888:	10c00115 	stw	r3,4(r2)
    388c:	11800215 	stw	r6,8(r2)
    3890:	0006cec0 	call	6cec <_Bfree>
    3894:	80001015 	stw	zero,64(r16)
    3898:	90002f16 	blt	r18,zero,3958 <_dtoa_r+0x12c>
    389c:	98000015 	stw	zero,0(r19)
    38a0:	90dffc2c 	andhi	r3,r18,32752
    38a4:	009ffc34 	movhi	r2,32752
    38a8:	18801c26 	beq	r3,r2,391c <_dtoa_r+0xf0>
    38ac:	d9000317 	ldw	r4,12(sp)
    38b0:	880b883a 	mov	r5,r17
    38b4:	000d883a 	mov	r6,zero
    38b8:	000f883a 	mov	r7,zero
    38bc:	000a2740 	call	a274 <__eqdf2>
    38c0:	10002c1e 	bne	r2,zero,3974 <_dtoa_r+0x148>
    38c4:	d9002217 	ldw	r4,136(sp)
    38c8:	d9c02417 	ldw	r7,144(sp)
    38cc:	00800044 	movi	r2,1
    38d0:	20800015 	stw	r2,0(r4)
    38d4:	38019426 	beq	r7,zero,3f28 <_dtoa_r+0x6fc>
    38d8:	00800074 	movhi	r2,1
    38dc:	10b68d44 	addi	r2,r2,-9675
    38e0:	38800015 	stw	r2,0(r7)
    38e4:	15ffffc4 	addi	r23,r2,-1
    38e8:	b805883a 	mov	r2,r23
    38ec:	dfc02017 	ldw	ra,128(sp)
    38f0:	df001f17 	ldw	fp,124(sp)
    38f4:	ddc01e17 	ldw	r23,120(sp)
    38f8:	dd801d17 	ldw	r22,116(sp)
    38fc:	dd401c17 	ldw	r21,112(sp)
    3900:	dd001b17 	ldw	r20,108(sp)
    3904:	dcc01a17 	ldw	r19,104(sp)
    3908:	dc801917 	ldw	r18,100(sp)
    390c:	dc401817 	ldw	r17,96(sp)
    3910:	dc001717 	ldw	r16,92(sp)
    3914:	dec02104 	addi	sp,sp,132
    3918:	f800283a 	ret
    391c:	d8c02217 	ldw	r3,136(sp)
    3920:	d9000317 	ldw	r4,12(sp)
    3924:	0089c3c4 	movi	r2,9999
    3928:	18800015 	stw	r2,0(r3)
    392c:	20016c26 	beq	r4,zero,3ee0 <_dtoa_r+0x6b4>
    3930:	05c00074 	movhi	r23,1
    3934:	bdf69904 	addi	r23,r23,-9628
    3938:	d9c02417 	ldw	r7,144(sp)
    393c:	383fea26 	beq	r7,zero,38e8 <_dtoa_r+0xbc>
    3940:	b88000c7 	ldb	r2,3(r23)
    3944:	10016d1e 	bne	r2,zero,3efc <_dtoa_r+0x6d0>
    3948:	b88000c4 	addi	r2,r23,3
    394c:	d8c02417 	ldw	r3,144(sp)
    3950:	18800015 	stw	r2,0(r3)
    3954:	003fe406 	br	38e8 <_dtoa_r+0xbc>
    3958:	04600034 	movhi	r17,32768
    395c:	8c7fffc4 	addi	r17,r17,-1
    3960:	9462703a 	and	r17,r18,r17
    3964:	00800044 	movi	r2,1
    3968:	98800015 	stw	r2,0(r19)
    396c:	8825883a 	mov	r18,r17
    3970:	003fcb06 	br	38a0 <_dtoa_r+0x74>
    3974:	d9400317 	ldw	r5,12(sp)
    3978:	9028d53a 	srli	r20,r18,20
    397c:	d8800204 	addi	r2,sp,8
    3980:	d8800015 	stw	r2,0(sp)
    3984:	8009883a 	mov	r4,r16
    3988:	880d883a 	mov	r6,r17
    398c:	d9c00104 	addi	r7,sp,4
    3990:	00079380 	call	7938 <__d2b>
    3994:	a501ffcc 	andi	r20,r20,2047
    3998:	1039883a 	mov	fp,r2
    399c:	a001591e 	bne	r20,zero,3f04 <_dtoa_r+0x6d8>
    39a0:	dd400217 	ldw	r21,8(sp)
    39a4:	dd000117 	ldw	r20,4(sp)
    39a8:	00befbc4 	movi	r2,-1041
    39ac:	ad29883a 	add	r20,r21,r20
    39b0:	a082d216 	blt	r20,r2,44fc <_dtoa_r+0xcd0>
    39b4:	d8c00317 	ldw	r3,12(sp)
    39b8:	013f0384 	movi	r4,-1010
    39bc:	2509c83a 	sub	r4,r4,r20
    39c0:	a0810484 	addi	r2,r20,1042
    39c4:	9124983a 	sll	r18,r18,r4
    39c8:	1884d83a 	srl	r2,r3,r2
    39cc:	9088b03a 	or	r4,r18,r2
    39d0:	000a5f80 	call	a5f8 <__floatunsidf>
    39d4:	1009883a 	mov	r4,r2
    39d8:	017f8434 	movhi	r5,65040
    39dc:	00800044 	movi	r2,1
    39e0:	194b883a 	add	r5,r3,r5
    39e4:	a53fffc4 	addi	r20,r20,-1
    39e8:	d8800f15 	stw	r2,60(sp)
    39ec:	000d883a 	mov	r6,zero
    39f0:	01cffe34 	movhi	r7,16376
    39f4:	0009d7c0 	call	9d7c <__subdf3>
    39f8:	1009883a 	mov	r4,r2
    39fc:	180b883a 	mov	r5,r3
    3a00:	0198dbf4 	movhi	r6,25455
    3a04:	3190d844 	addi	r6,r6,17249
    3a08:	01cff4f4 	movhi	r7,16339
    3a0c:	39e1e9c4 	addi	r7,r7,-30809
    3a10:	0009ddc0 	call	9ddc <__muldf3>
    3a14:	180b883a 	mov	r5,r3
    3a18:	01a2d874 	movhi	r6,35681
    3a1c:	31b22cc4 	addi	r6,r6,-14157
    3a20:	01cff1f4 	movhi	r7,16327
    3a24:	39e28a04 	addi	r7,r7,-30168
    3a28:	1009883a 	mov	r4,r2
    3a2c:	0009d280 	call	9d28 <__adddf3>
    3a30:	a009883a 	mov	r4,r20
    3a34:	1027883a 	mov	r19,r2
    3a38:	1825883a 	mov	r18,r3
    3a3c:	000a4500 	call	a450 <__floatsidf>
    3a40:	1009883a 	mov	r4,r2
    3a44:	180b883a 	mov	r5,r3
    3a48:	019427f4 	movhi	r6,20639
    3a4c:	319e7ec4 	addi	r6,r6,31227
    3a50:	01cff4f4 	movhi	r7,16339
    3a54:	39d104c4 	addi	r7,r7,17427
    3a58:	0009ddc0 	call	9ddc <__muldf3>
    3a5c:	9809883a 	mov	r4,r19
    3a60:	900b883a 	mov	r5,r18
    3a64:	100d883a 	mov	r6,r2
    3a68:	180f883a 	mov	r7,r3
    3a6c:	0009d280 	call	9d28 <__adddf3>
    3a70:	1009883a 	mov	r4,r2
    3a74:	180b883a 	mov	r5,r3
    3a78:	1027883a 	mov	r19,r2
    3a7c:	1825883a 	mov	r18,r3
    3a80:	000a5240 	call	a524 <__fixdfsi>
    3a84:	9809883a 	mov	r4,r19
    3a88:	900b883a 	mov	r5,r18
    3a8c:	000d883a 	mov	r6,zero
    3a90:	000f883a 	mov	r7,zero
    3a94:	d8800615 	stw	r2,24(sp)
    3a98:	000a3f40 	call	a3f4 <__ltdf2>
    3a9c:	10027e16 	blt	r2,zero,4498 <_dtoa_r+0xc6c>
    3aa0:	d8c00617 	ldw	r3,24(sp)
    3aa4:	00800584 	movi	r2,22
    3aa8:	10c26c36 	bltu	r2,r3,445c <_dtoa_r+0xc30>
    3aac:	180490fa 	slli	r2,r3,3
    3ab0:	00c00074 	movhi	r3,1
    3ab4:	18f6bf04 	addi	r3,r3,-9476
    3ab8:	d9800317 	ldw	r6,12(sp)
    3abc:	1885883a 	add	r2,r3,r2
    3ac0:	11000017 	ldw	r4,0(r2)
    3ac4:	11400117 	ldw	r5,4(r2)
    3ac8:	880f883a 	mov	r7,r17
    3acc:	000a32c0 	call	a32c <__gtdf2>
    3ad0:	00828f0e 	bge	zero,r2,4510 <_dtoa_r+0xce4>
    3ad4:	d8800617 	ldw	r2,24(sp)
    3ad8:	d8000d15 	stw	zero,52(sp)
    3adc:	10bfffc4 	addi	r2,r2,-1
    3ae0:	d8800615 	stw	r2,24(sp)
    3ae4:	ad29c83a 	sub	r20,r21,r20
    3ae8:	a53fffc4 	addi	r20,r20,-1
    3aec:	a0026616 	blt	r20,zero,4488 <_dtoa_r+0xc5c>
    3af0:	dd000715 	stw	r20,28(sp)
    3af4:	d8000815 	stw	zero,32(sp)
    3af8:	d8800617 	ldw	r2,24(sp)
    3afc:	10025a16 	blt	r2,zero,4468 <_dtoa_r+0xc3c>
    3b00:	d8c00717 	ldw	r3,28(sp)
    3b04:	d8800b15 	stw	r2,44(sp)
    3b08:	d8000a15 	stw	zero,40(sp)
    3b0c:	1887883a 	add	r3,r3,r2
    3b10:	d8c00715 	stw	r3,28(sp)
    3b14:	d9c00417 	ldw	r7,16(sp)
    3b18:	00800244 	movi	r2,9
    3b1c:	11c10536 	bltu	r2,r7,3f34 <_dtoa_r+0x708>
    3b20:	00800144 	movi	r2,5
    3b24:	11c4c60e 	bge	r2,r7,4e40 <_dtoa_r+0x1614>
    3b28:	39ffff04 	addi	r7,r7,-4
    3b2c:	d9c00415 	stw	r7,16(sp)
    3b30:	0027883a 	mov	r19,zero
    3b34:	d9c00417 	ldw	r7,16(sp)
    3b38:	008000c4 	movi	r2,3
    3b3c:	3883a226 	beq	r7,r2,49c8 <_dtoa_r+0x119c>
    3b40:	11c2bc16 	blt	r2,r7,4634 <_dtoa_r+0xe08>
    3b44:	00800084 	movi	r2,2
    3b48:	3880fb1e 	bne	r7,r2,3f38 <_dtoa_r+0x70c>
    3b4c:	d8000c15 	stw	zero,48(sp)
    3b50:	d9002117 	ldw	r4,132(sp)
    3b54:	0103ae0e 	bge	zero,r4,4a10 <_dtoa_r+0x11e4>
    3b58:	2025883a 	mov	r18,r4
    3b5c:	d9000e15 	stw	r4,56(sp)
    3b60:	d9000915 	stw	r4,36(sp)
    3b64:	80001115 	stw	zero,68(r16)
    3b68:	008005c4 	movi	r2,23
    3b6c:	1484b22e 	bgeu	r2,r18,4e38 <_dtoa_r+0x160c>
    3b70:	00c00044 	movi	r3,1
    3b74:	00800104 	movi	r2,4
    3b78:	1085883a 	add	r2,r2,r2
    3b7c:	11000504 	addi	r4,r2,20
    3b80:	180b883a 	mov	r5,r3
    3b84:	18c00044 	addi	r3,r3,1
    3b88:	913ffb2e 	bgeu	r18,r4,3b78 <_dtoa_r+0x34c>
    3b8c:	81401115 	stw	r5,68(r16)
    3b90:	8009883a 	mov	r4,r16
    3b94:	0006c440 	call	6c44 <_Balloc>
    3b98:	102f883a 	mov	r23,r2
    3b9c:	80801015 	stw	r2,64(r16)
    3ba0:	00800384 	movi	r2,14
    3ba4:	1480f036 	bltu	r2,r18,3f68 <_dtoa_r+0x73c>
    3ba8:	9800ef26 	beq	r19,zero,3f68 <_dtoa_r+0x73c>
    3bac:	d8800617 	ldw	r2,24(sp)
    3bb0:	00839c0e 	bge	zero,r2,4a24 <_dtoa_r+0x11f8>
    3bb4:	d8c00617 	ldw	r3,24(sp)
    3bb8:	108003cc 	andi	r2,r2,15
    3bbc:	100490fa 	slli	r2,r2,3
    3bc0:	182bd13a 	srai	r21,r3,4
    3bc4:	00c00074 	movhi	r3,1
    3bc8:	18f6bf04 	addi	r3,r3,-9476
    3bcc:	1885883a 	add	r2,r3,r2
    3bd0:	a8c0040c 	andi	r3,r21,16
    3bd4:	12800017 	ldw	r10,0(r2)
    3bd8:	15800117 	ldw	r22,4(r2)
    3bdc:	18038726 	beq	r3,zero,49fc <_dtoa_r+0x11d0>
    3be0:	00800074 	movhi	r2,1
    3be4:	10b6b504 	addi	r2,r2,-9516
    3be8:	11800817 	ldw	r6,32(r2)
    3bec:	11c00917 	ldw	r7,36(r2)
    3bf0:	d9000317 	ldw	r4,12(sp)
    3bf4:	880b883a 	mov	r5,r17
    3bf8:	da801515 	stw	r10,84(sp)
    3bfc:	000a0c00 	call	a0c0 <__divdf3>
    3c00:	da801517 	ldw	r10,84(sp)
    3c04:	d8801015 	stw	r2,64(sp)
    3c08:	1829883a 	mov	r20,r3
    3c0c:	ad4003cc 	andi	r21,r21,15
    3c10:	048000c4 	movi	r18,3
    3c14:	a8001126 	beq	r21,zero,3c5c <_dtoa_r+0x430>
    3c18:	04c00074 	movhi	r19,1
    3c1c:	9cf6b504 	addi	r19,r19,-9516
    3c20:	5005883a 	mov	r2,r10
    3c24:	b007883a 	mov	r3,r22
    3c28:	a980004c 	andi	r6,r21,1
    3c2c:	1009883a 	mov	r4,r2
    3c30:	a82bd07a 	srai	r21,r21,1
    3c34:	180b883a 	mov	r5,r3
    3c38:	30000426 	beq	r6,zero,3c4c <_dtoa_r+0x420>
    3c3c:	99800017 	ldw	r6,0(r19)
    3c40:	99c00117 	ldw	r7,4(r19)
    3c44:	94800044 	addi	r18,r18,1
    3c48:	0009ddc0 	call	9ddc <__muldf3>
    3c4c:	9cc00204 	addi	r19,r19,8
    3c50:	a83ff51e 	bne	r21,zero,3c28 <_dtoa_r+0x3fc>
    3c54:	1015883a 	mov	r10,r2
    3c58:	182d883a 	mov	r22,r3
    3c5c:	d9001017 	ldw	r4,64(sp)
    3c60:	a00b883a 	mov	r5,r20
    3c64:	500d883a 	mov	r6,r10
    3c68:	b00f883a 	mov	r7,r22
    3c6c:	000a0c00 	call	a0c0 <__divdf3>
    3c70:	1027883a 	mov	r19,r2
    3c74:	1829883a 	mov	r20,r3
    3c78:	d8c00d17 	ldw	r3,52(sp)
    3c7c:	18000626 	beq	r3,zero,3c98 <_dtoa_r+0x46c>
    3c80:	9809883a 	mov	r4,r19
    3c84:	a00b883a 	mov	r5,r20
    3c88:	000d883a 	mov	r6,zero
    3c8c:	01cffc34 	movhi	r7,16368
    3c90:	000a3f40 	call	a3f4 <__ltdf2>
    3c94:	10040e16 	blt	r2,zero,4cd0 <_dtoa_r+0x14a4>
    3c98:	9009883a 	mov	r4,r18
    3c9c:	000a4500 	call	a450 <__floatsidf>
    3ca0:	1009883a 	mov	r4,r2
    3ca4:	180b883a 	mov	r5,r3
    3ca8:	980d883a 	mov	r6,r19
    3cac:	a00f883a 	mov	r7,r20
    3cb0:	0009ddc0 	call	9ddc <__muldf3>
    3cb4:	1009883a 	mov	r4,r2
    3cb8:	180b883a 	mov	r5,r3
    3cbc:	000d883a 	mov	r6,zero
    3cc0:	01d00734 	movhi	r7,16412
    3cc4:	0009d280 	call	9d28 <__adddf3>
    3cc8:	057f3034 	movhi	r21,64704
    3ccc:	1d6b883a 	add	r21,r3,r21
    3cd0:	d8c00917 	ldw	r3,36(sp)
    3cd4:	1025883a 	mov	r18,r2
    3cd8:	18031f26 	beq	r3,zero,4958 <_dtoa_r+0x112c>
    3cdc:	d8800617 	ldw	r2,24(sp)
    3ce0:	dac00917 	ldw	r11,36(sp)
    3ce4:	d8801315 	stw	r2,76(sp)
    3ce8:	d8c00c17 	ldw	r3,48(sp)
    3cec:	18039026 	beq	r3,zero,4b30 <_dtoa_r+0x1304>
    3cf0:	58bfffc4 	addi	r2,r11,-1
    3cf4:	100490fa 	slli	r2,r2,3
    3cf8:	00c00074 	movhi	r3,1
    3cfc:	18f6bf04 	addi	r3,r3,-9476
    3d00:	0009883a 	mov	r4,zero
    3d04:	1885883a 	add	r2,r3,r2
    3d08:	11800017 	ldw	r6,0(r2)
    3d0c:	11c00117 	ldw	r7,4(r2)
    3d10:	014ff834 	movhi	r5,16352
    3d14:	dac01615 	stw	r11,88(sp)
    3d18:	000a0c00 	call	a0c0 <__divdf3>
    3d1c:	900d883a 	mov	r6,r18
    3d20:	a80f883a 	mov	r7,r21
    3d24:	1009883a 	mov	r4,r2
    3d28:	180b883a 	mov	r5,r3
    3d2c:	0009d7c0 	call	9d7c <__subdf3>
    3d30:	a00b883a 	mov	r5,r20
    3d34:	9809883a 	mov	r4,r19
    3d38:	182b883a 	mov	r21,r3
    3d3c:	d8801015 	stw	r2,64(sp)
    3d40:	000a5240 	call	a524 <__fixdfsi>
    3d44:	1009883a 	mov	r4,r2
    3d48:	d8801515 	stw	r2,84(sp)
    3d4c:	000a4500 	call	a450 <__floatsidf>
    3d50:	9809883a 	mov	r4,r19
    3d54:	a00b883a 	mov	r5,r20
    3d58:	100d883a 	mov	r6,r2
    3d5c:	180f883a 	mov	r7,r3
    3d60:	0009d7c0 	call	9d7c <__subdf3>
    3d64:	da401517 	ldw	r9,84(sp)
    3d68:	d9001017 	ldw	r4,64(sp)
    3d6c:	a80b883a 	mov	r5,r21
    3d70:	4d000c04 	addi	r20,r9,48
    3d74:	bd000005 	stb	r20,0(r23)
    3d78:	100d883a 	mov	r6,r2
    3d7c:	180f883a 	mov	r7,r3
    3d80:	bd800044 	addi	r22,r23,1
    3d84:	1025883a 	mov	r18,r2
    3d88:	1827883a 	mov	r19,r3
    3d8c:	000a32c0 	call	a32c <__gtdf2>
    3d90:	00842216 	blt	zero,r2,4e1c <_dtoa_r+0x15f0>
    3d94:	0009883a 	mov	r4,zero
    3d98:	014ffc34 	movhi	r5,16368
    3d9c:	900d883a 	mov	r6,r18
    3da0:	980f883a 	mov	r7,r19
    3da4:	0009d7c0 	call	9d7c <__subdf3>
    3da8:	d9001017 	ldw	r4,64(sp)
    3dac:	a80b883a 	mov	r5,r21
    3db0:	100d883a 	mov	r6,r2
    3db4:	180f883a 	mov	r7,r3
    3db8:	000a32c0 	call	a32c <__gtdf2>
    3dbc:	dac01617 	ldw	r11,88(sp)
    3dc0:	00841316 	blt	zero,r2,4e10 <_dtoa_r+0x15e4>
    3dc4:	00800044 	movi	r2,1
    3dc8:	12c0670e 	bge	r2,r11,3f68 <_dtoa_r+0x73c>
    3dcc:	bad7883a 	add	r11,r23,r11
    3dd0:	df001115 	stw	fp,68(sp)
    3dd4:	dc401215 	stw	r17,72(sp)
    3dd8:	5839883a 	mov	fp,r11
    3ddc:	dc401017 	ldw	r17,64(sp)
    3de0:	00000806 	br	3e04 <_dtoa_r+0x5d8>
    3de4:	0009d7c0 	call	9d7c <__subdf3>
    3de8:	1009883a 	mov	r4,r2
    3dec:	180b883a 	mov	r5,r3
    3df0:	880d883a 	mov	r6,r17
    3df4:	a80f883a 	mov	r7,r21
    3df8:	000a3f40 	call	a3f4 <__ltdf2>
    3dfc:	1003ee16 	blt	r2,zero,4db8 <_dtoa_r+0x158c>
    3e00:	b703f126 	beq	r22,fp,4dc8 <_dtoa_r+0x159c>
    3e04:	8809883a 	mov	r4,r17
    3e08:	a80b883a 	mov	r5,r21
    3e0c:	000d883a 	mov	r6,zero
    3e10:	01d00934 	movhi	r7,16420
    3e14:	0009ddc0 	call	9ddc <__muldf3>
    3e18:	000d883a 	mov	r6,zero
    3e1c:	01d00934 	movhi	r7,16420
    3e20:	9009883a 	mov	r4,r18
    3e24:	980b883a 	mov	r5,r19
    3e28:	1023883a 	mov	r17,r2
    3e2c:	182b883a 	mov	r21,r3
    3e30:	0009ddc0 	call	9ddc <__muldf3>
    3e34:	180b883a 	mov	r5,r3
    3e38:	1009883a 	mov	r4,r2
    3e3c:	1825883a 	mov	r18,r3
    3e40:	1027883a 	mov	r19,r2
    3e44:	000a5240 	call	a524 <__fixdfsi>
    3e48:	1009883a 	mov	r4,r2
    3e4c:	1029883a 	mov	r20,r2
    3e50:	000a4500 	call	a450 <__floatsidf>
    3e54:	9809883a 	mov	r4,r19
    3e58:	900b883a 	mov	r5,r18
    3e5c:	100d883a 	mov	r6,r2
    3e60:	180f883a 	mov	r7,r3
    3e64:	0009d7c0 	call	9d7c <__subdf3>
    3e68:	a5000c04 	addi	r20,r20,48
    3e6c:	b5000005 	stb	r20,0(r22)
    3e70:	1009883a 	mov	r4,r2
    3e74:	180b883a 	mov	r5,r3
    3e78:	880d883a 	mov	r6,r17
    3e7c:	a80f883a 	mov	r7,r21
    3e80:	1025883a 	mov	r18,r2
    3e84:	1827883a 	mov	r19,r3
    3e88:	000a3f40 	call	a3f4 <__ltdf2>
    3e8c:	b5800044 	addi	r22,r22,1
    3e90:	0009883a 	mov	r4,zero
    3e94:	014ffc34 	movhi	r5,16368
    3e98:	900d883a 	mov	r6,r18
    3e9c:	980f883a 	mov	r7,r19
    3ea0:	103fd00e 	bge	r2,zero,3de4 <_dtoa_r+0x5b8>
    3ea4:	d9001317 	ldw	r4,76(sp)
    3ea8:	df001117 	ldw	fp,68(sp)
    3eac:	d9000615 	stw	r4,24(sp)
    3eb0:	8009883a 	mov	r4,r16
    3eb4:	e00b883a 	mov	r5,fp
    3eb8:	0006cec0 	call	6cec <_Bfree>
    3ebc:	d9c00617 	ldw	r7,24(sp)
    3ec0:	d8c02217 	ldw	r3,136(sp)
    3ec4:	d9002417 	ldw	r4,144(sp)
    3ec8:	b0000005 	stb	zero,0(r22)
    3ecc:	38800044 	addi	r2,r7,1
    3ed0:	18800015 	stw	r2,0(r3)
    3ed4:	203e8426 	beq	r4,zero,38e8 <_dtoa_r+0xbc>
    3ed8:	25800015 	stw	r22,0(r4)
    3edc:	003e8206 	br	38e8 <_dtoa_r+0xbc>
    3ee0:	00800434 	movhi	r2,16
    3ee4:	10bfffc4 	addi	r2,r2,-1
    3ee8:	90a4703a 	and	r18,r18,r2
    3eec:	903e901e 	bne	r18,zero,3930 <_dtoa_r+0x104>
    3ef0:	05c00074 	movhi	r23,1
    3ef4:	bdf69604 	addi	r23,r23,-9640
    3ef8:	003e8f06 	br	3938 <_dtoa_r+0x10c>
    3efc:	b8800204 	addi	r2,r23,8
    3f00:	003e9206 	br	394c <_dtoa_r+0x120>
    3f04:	01400434 	movhi	r5,16
    3f08:	297fffc4 	addi	r5,r5,-1
    3f0c:	894a703a 	and	r5,r17,r5
    3f10:	d9000317 	ldw	r4,12(sp)
    3f14:	294ffc34 	orhi	r5,r5,16368
    3f18:	a53f0044 	addi	r20,r20,-1023
    3f1c:	dd400217 	ldw	r21,8(sp)
    3f20:	d8000f15 	stw	zero,60(sp)
    3f24:	003eb106 	br	39ec <_dtoa_r+0x1c0>
    3f28:	05c00074 	movhi	r23,1
    3f2c:	bdf68d04 	addi	r23,r23,-9676
    3f30:	003e6d06 	br	38e8 <_dtoa_r+0xbc>
    3f34:	d8000415 	stw	zero,16(sp)
    3f38:	80001115 	stw	zero,68(r16)
    3f3c:	8009883a 	mov	r4,r16
    3f40:	000b883a 	mov	r5,zero
    3f44:	0006c440 	call	6c44 <_Balloc>
    3f48:	01ffffc4 	movi	r7,-1
    3f4c:	102f883a 	mov	r23,r2
    3f50:	80801015 	stw	r2,64(r16)
    3f54:	00800044 	movi	r2,1
    3f58:	d9c00915 	stw	r7,36(sp)
    3f5c:	d8002115 	stw	zero,132(sp)
    3f60:	d9c00e15 	stw	r7,56(sp)
    3f64:	d8800c15 	stw	r2,48(sp)
    3f68:	d8800117 	ldw	r2,4(sp)
    3f6c:	10008b16 	blt	r2,zero,419c <_dtoa_r+0x970>
    3f70:	d9000617 	ldw	r4,24(sp)
    3f74:	00c00384 	movi	r3,14
    3f78:	19008816 	blt	r3,r4,419c <_dtoa_r+0x970>
    3f7c:	200490fa 	slli	r2,r4,3
    3f80:	d9c02117 	ldw	r7,132(sp)
    3f84:	00c00074 	movhi	r3,1
    3f88:	18f6bf04 	addi	r3,r3,-9476
    3f8c:	1885883a 	add	r2,r3,r2
    3f90:	14800017 	ldw	r18,0(r2)
    3f94:	14c00117 	ldw	r19,4(r2)
    3f98:	3801c916 	blt	r7,zero,46c0 <_dtoa_r+0xe94>
    3f9c:	d9000317 	ldw	r4,12(sp)
    3fa0:	900d883a 	mov	r6,r18
    3fa4:	980f883a 	mov	r7,r19
    3fa8:	880b883a 	mov	r5,r17
    3fac:	000a0c00 	call	a0c0 <__divdf3>
    3fb0:	180b883a 	mov	r5,r3
    3fb4:	1009883a 	mov	r4,r2
    3fb8:	000a5240 	call	a524 <__fixdfsi>
    3fbc:	1009883a 	mov	r4,r2
    3fc0:	102b883a 	mov	r21,r2
    3fc4:	000a4500 	call	a450 <__floatsidf>
    3fc8:	1009883a 	mov	r4,r2
    3fcc:	180b883a 	mov	r5,r3
    3fd0:	900d883a 	mov	r6,r18
    3fd4:	980f883a 	mov	r7,r19
    3fd8:	0009ddc0 	call	9ddc <__muldf3>
    3fdc:	d9000317 	ldw	r4,12(sp)
    3fe0:	880b883a 	mov	r5,r17
    3fe4:	100d883a 	mov	r6,r2
    3fe8:	180f883a 	mov	r7,r3
    3fec:	0009d7c0 	call	9d7c <__subdf3>
    3ff0:	d9c00917 	ldw	r7,36(sp)
    3ff4:	1009883a 	mov	r4,r2
    3ff8:	a8800c04 	addi	r2,r21,48
    3ffc:	b8800005 	stb	r2,0(r23)
    4000:	01800044 	movi	r6,1
    4004:	180b883a 	mov	r5,r3
    4008:	2005883a 	mov	r2,r4
    400c:	bd800044 	addi	r22,r23,1
    4010:	39803726 	beq	r7,r6,40f0 <_dtoa_r+0x8c4>
    4014:	000d883a 	mov	r6,zero
    4018:	01d00934 	movhi	r7,16420
    401c:	0009ddc0 	call	9ddc <__muldf3>
    4020:	1009883a 	mov	r4,r2
    4024:	180b883a 	mov	r5,r3
    4028:	000d883a 	mov	r6,zero
    402c:	000f883a 	mov	r7,zero
    4030:	1029883a 	mov	r20,r2
    4034:	1823883a 	mov	r17,r3
    4038:	000a2740 	call	a274 <__eqdf2>
    403c:	103f9c26 	beq	r2,zero,3eb0 <_dtoa_r+0x684>
    4040:	dd400917 	ldw	r21,36(sp)
    4044:	dc000415 	stw	r16,16(sp)
    4048:	00000906 	br	4070 <_dtoa_r+0x844>
    404c:	0009ddc0 	call	9ddc <__muldf3>
    4050:	1009883a 	mov	r4,r2
    4054:	180b883a 	mov	r5,r3
    4058:	000d883a 	mov	r6,zero
    405c:	000f883a 	mov	r7,zero
    4060:	1029883a 	mov	r20,r2
    4064:	1823883a 	mov	r17,r3
    4068:	000a2740 	call	a274 <__eqdf2>
    406c:	10022926 	beq	r2,zero,4914 <_dtoa_r+0x10e8>
    4070:	900d883a 	mov	r6,r18
    4074:	980f883a 	mov	r7,r19
    4078:	a009883a 	mov	r4,r20
    407c:	880b883a 	mov	r5,r17
    4080:	000a0c00 	call	a0c0 <__divdf3>
    4084:	180b883a 	mov	r5,r3
    4088:	1009883a 	mov	r4,r2
    408c:	000a5240 	call	a524 <__fixdfsi>
    4090:	1009883a 	mov	r4,r2
    4094:	1021883a 	mov	r16,r2
    4098:	000a4500 	call	a450 <__floatsidf>
    409c:	1009883a 	mov	r4,r2
    40a0:	180b883a 	mov	r5,r3
    40a4:	900d883a 	mov	r6,r18
    40a8:	980f883a 	mov	r7,r19
    40ac:	0009ddc0 	call	9ddc <__muldf3>
    40b0:	a009883a 	mov	r4,r20
    40b4:	880b883a 	mov	r5,r17
    40b8:	100d883a 	mov	r6,r2
    40bc:	180f883a 	mov	r7,r3
    40c0:	0009d7c0 	call	9d7c <__subdf3>
    40c4:	82400c04 	addi	r9,r16,48
    40c8:	b2400005 	stb	r9,0(r22)
    40cc:	b5800044 	addi	r22,r22,1
    40d0:	b5d3c83a 	sub	r9,r22,r23
    40d4:	000d883a 	mov	r6,zero
    40d8:	01d00934 	movhi	r7,16420
    40dc:	1009883a 	mov	r4,r2
    40e0:	180b883a 	mov	r5,r3
    40e4:	aa7fd91e 	bne	r21,r9,404c <_dtoa_r+0x820>
    40e8:	802b883a 	mov	r21,r16
    40ec:	dc000417 	ldw	r16,16(sp)
    40f0:	1009883a 	mov	r4,r2
    40f4:	180b883a 	mov	r5,r3
    40f8:	100d883a 	mov	r6,r2
    40fc:	180f883a 	mov	r7,r3
    4100:	0009d280 	call	9d28 <__adddf3>
    4104:	9009883a 	mov	r4,r18
    4108:	980b883a 	mov	r5,r19
    410c:	100d883a 	mov	r6,r2
    4110:	180f883a 	mov	r7,r3
    4114:	1023883a 	mov	r17,r2
    4118:	1829883a 	mov	r20,r3
    411c:	000a3f40 	call	a3f4 <__ltdf2>
    4120:	10000816 	blt	r2,zero,4144 <_dtoa_r+0x918>
    4124:	9009883a 	mov	r4,r18
    4128:	980b883a 	mov	r5,r19
    412c:	880d883a 	mov	r6,r17
    4130:	a00f883a 	mov	r7,r20
    4134:	000a2740 	call	a274 <__eqdf2>
    4138:	103f5d1e 	bne	r2,zero,3eb0 <_dtoa_r+0x684>
    413c:	ad40004c 	andi	r21,r21,1
    4140:	a83f5b26 	beq	r21,zero,3eb0 <_dtoa_r+0x684>
    4144:	b53fffc3 	ldbu	r20,-1(r22)
    4148:	b0ffff84 	addi	r3,r22,-2
    414c:	01400e44 	movi	r5,57
    4150:	00000306 	br	4160 <_dtoa_r+0x934>
    4154:	1d000003 	ldbu	r20,0(r3)
    4158:	102d883a 	mov	r22,r2
    415c:	18ffffc4 	addi	r3,r3,-1
    4160:	a1003fcc 	andi	r4,r20,255
    4164:	2100201c 	xori	r4,r4,128
    4168:	213fe004 	addi	r4,r4,-128
    416c:	b0bfffc4 	addi	r2,r22,-1
    4170:	2142ca1e 	bne	r4,r5,4c9c <_dtoa_r+0x1470>
    4174:	b8bff71e 	bne	r23,r2,4154 <_dtoa_r+0x928>
    4178:	d8800617 	ldw	r2,24(sp)
    417c:	05000c44 	movi	r20,49
    4180:	10800044 	addi	r2,r2,1
    4184:	d8800615 	stw	r2,24(sp)
    4188:	00800c04 	movi	r2,48
    418c:	b8800005 	stb	r2,0(r23)
    4190:	b805883a 	mov	r2,r23
    4194:	15000005 	stb	r20,0(r2)
    4198:	003f4506 	br	3eb0 <_dtoa_r+0x684>
    419c:	d9c00c17 	ldw	r7,48(sp)
    41a0:	3800c926 	beq	r7,zero,44c8 <_dtoa_r+0xc9c>
    41a4:	d9c00417 	ldw	r7,16(sp)
    41a8:	00c00044 	movi	r3,1
    41ac:	19c16c0e 	bge	r3,r7,4760 <_dtoa_r+0xf34>
    41b0:	d9000917 	ldw	r4,36(sp)
    41b4:	d9c00a17 	ldw	r7,40(sp)
    41b8:	24ffffc4 	addi	r19,r4,-1
    41bc:	3cc20716 	blt	r7,r19,49dc <_dtoa_r+0x11b0>
    41c0:	3ce7c83a 	sub	r19,r7,r19
    41c4:	d9c00917 	ldw	r7,36(sp)
    41c8:	3802ae16 	blt	r7,zero,4c84 <_dtoa_r+0x1458>
    41cc:	dc800817 	ldw	r18,32(sp)
    41d0:	d8800917 	ldw	r2,36(sp)
    41d4:	d8c00817 	ldw	r3,32(sp)
    41d8:	d9c00717 	ldw	r7,28(sp)
    41dc:	8009883a 	mov	r4,r16
    41e0:	1887883a 	add	r3,r3,r2
    41e4:	388f883a 	add	r7,r7,r2
    41e8:	01400044 	movi	r5,1
    41ec:	d8c00815 	stw	r3,32(sp)
    41f0:	d9c00715 	stw	r7,28(sp)
    41f4:	00070740 	call	7074 <__i2b>
    41f8:	102b883a 	mov	r21,r2
    41fc:	90000a26 	beq	r18,zero,4228 <_dtoa_r+0x9fc>
    4200:	d8800717 	ldw	r2,28(sp)
    4204:	0080080e 	bge	zero,r2,4228 <_dtoa_r+0x9fc>
    4208:	90812b16 	blt	r18,r2,46b8 <_dtoa_r+0xe8c>
    420c:	d8c00817 	ldw	r3,32(sp)
    4210:	d9000717 	ldw	r4,28(sp)
    4214:	90a5c83a 	sub	r18,r18,r2
    4218:	1887c83a 	sub	r3,r3,r2
    421c:	2089c83a 	sub	r4,r4,r2
    4220:	d8c00815 	stw	r3,32(sp)
    4224:	d9000715 	stw	r4,28(sp)
    4228:	d9c00a17 	ldw	r7,40(sp)
    422c:	01c0140e 	bge	zero,r7,4280 <_dtoa_r+0xa54>
    4230:	d8800c17 	ldw	r2,48(sp)
    4234:	1001de26 	beq	r2,zero,49b0 <_dtoa_r+0x1184>
    4238:	04c00e0e 	bge	zero,r19,4274 <_dtoa_r+0xa48>
    423c:	a80b883a 	mov	r5,r21
    4240:	8009883a 	mov	r4,r16
    4244:	980d883a 	mov	r6,r19
    4248:	00073080 	call	7308 <__pow5mult>
    424c:	e00d883a 	mov	r6,fp
    4250:	8009883a 	mov	r4,r16
    4254:	100b883a 	mov	r5,r2
    4258:	102b883a 	mov	r21,r2
    425c:	00070b00 	call	70b0 <__multiply>
    4260:	1029883a 	mov	r20,r2
    4264:	e00b883a 	mov	r5,fp
    4268:	8009883a 	mov	r4,r16
    426c:	0006cec0 	call	6cec <_Bfree>
    4270:	a039883a 	mov	fp,r20
    4274:	d8c00a17 	ldw	r3,40(sp)
    4278:	1ccdc83a 	sub	r6,r3,r19
    427c:	3001291e 	bne	r6,zero,4724 <_dtoa_r+0xef8>
    4280:	8009883a 	mov	r4,r16
    4284:	01400044 	movi	r5,1
    4288:	00070740 	call	7074 <__i2b>
    428c:	d9000b17 	ldw	r4,44(sp)
    4290:	1029883a 	mov	r20,r2
    4294:	0100050e 	bge	zero,r4,42ac <_dtoa_r+0xa80>
    4298:	d9800b17 	ldw	r6,44(sp)
    429c:	8009883a 	mov	r4,r16
    42a0:	100b883a 	mov	r5,r2
    42a4:	00073080 	call	7308 <__pow5mult>
    42a8:	1029883a 	mov	r20,r2
    42ac:	d9c00417 	ldw	r7,16(sp)
    42b0:	00800044 	movi	r2,1
    42b4:	11c0f00e 	bge	r2,r7,4678 <_dtoa_r+0xe4c>
    42b8:	0023883a 	mov	r17,zero
    42bc:	d8800b17 	ldw	r2,44(sp)
    42c0:	1001741e 	bne	r2,zero,4894 <_dtoa_r+0x1068>
    42c4:	00800044 	movi	r2,1
    42c8:	d8c00717 	ldw	r3,28(sp)
    42cc:	10c5883a 	add	r2,r2,r3
    42d0:	108007cc 	andi	r2,r2,31
    42d4:	10008026 	beq	r2,zero,44d8 <_dtoa_r+0xcac>
    42d8:	01000804 	movi	r4,32
    42dc:	2089c83a 	sub	r4,r4,r2
    42e0:	00c00104 	movi	r3,4
    42e4:	1902d00e 	bge	r3,r4,4e28 <_dtoa_r+0x15fc>
    42e8:	d9000817 	ldw	r4,32(sp)
    42ec:	d9c00717 	ldw	r7,28(sp)
    42f0:	00c00704 	movi	r3,28
    42f4:	1885c83a 	sub	r2,r3,r2
    42f8:	2089883a 	add	r4,r4,r2
    42fc:	388f883a 	add	r7,r7,r2
    4300:	d9000815 	stw	r4,32(sp)
    4304:	90a5883a 	add	r18,r18,r2
    4308:	d9c00715 	stw	r7,28(sp)
    430c:	d9c00817 	ldw	r7,32(sp)
    4310:	01c0050e 	bge	zero,r7,4328 <_dtoa_r+0xafc>
    4314:	e00b883a 	mov	r5,fp
    4318:	8009883a 	mov	r4,r16
    431c:	380d883a 	mov	r6,r7
    4320:	00074340 	call	7434 <__lshift>
    4324:	1039883a 	mov	fp,r2
    4328:	d8800717 	ldw	r2,28(sp)
    432c:	0080050e 	bge	zero,r2,4344 <_dtoa_r+0xb18>
    4330:	a00b883a 	mov	r5,r20
    4334:	8009883a 	mov	r4,r16
    4338:	100d883a 	mov	r6,r2
    433c:	00074340 	call	7434 <__lshift>
    4340:	1029883a 	mov	r20,r2
    4344:	d8c00d17 	ldw	r3,52(sp)
    4348:	1801401e 	bne	r3,zero,484c <_dtoa_r+0x1020>
    434c:	d8800917 	ldw	r2,36(sp)
    4350:	00815a0e 	bge	zero,r2,48bc <_dtoa_r+0x1090>
    4354:	d8c00c17 	ldw	r3,48(sp)
    4358:	18006f1e 	bne	r3,zero,4518 <_dtoa_r+0xcec>
    435c:	b823883a 	mov	r17,r23
    4360:	dc800917 	ldw	r18,36(sp)
    4364:	00000206 	br	4370 <_dtoa_r+0xb44>
    4368:	0006d140 	call	6d14 <__multadd>
    436c:	1039883a 	mov	fp,r2
    4370:	e009883a 	mov	r4,fp
    4374:	a00b883a 	mov	r5,r20
    4378:	00035f00 	call	35f0 <quorem>
    437c:	10800c04 	addi	r2,r2,48
    4380:	88800005 	stb	r2,0(r17)
    4384:	8c400044 	addi	r17,r17,1
    4388:	8dc7c83a 	sub	r3,r17,r23
    438c:	8009883a 	mov	r4,r16
    4390:	e00b883a 	mov	r5,fp
    4394:	01800284 	movi	r6,10
    4398:	000f883a 	mov	r7,zero
    439c:	1cbff216 	blt	r3,r18,4368 <_dtoa_r+0xb3c>
    43a0:	dd800917 	ldw	r22,36(sp)
    43a4:	1007883a 	mov	r3,r2
    43a8:	05823a0e 	bge	zero,r22,4c94 <_dtoa_r+0x1468>
    43ac:	bdad883a 	add	r22,r23,r22
    43b0:	0023883a 	mov	r17,zero
    43b4:	e00b883a 	mov	r5,fp
    43b8:	01800044 	movi	r6,1
    43bc:	8009883a 	mov	r4,r16
    43c0:	d8c01515 	stw	r3,84(sp)
    43c4:	00074340 	call	7434 <__lshift>
    43c8:	1009883a 	mov	r4,r2
    43cc:	a00b883a 	mov	r5,r20
    43d0:	1039883a 	mov	fp,r2
    43d4:	00075900 	call	7590 <__mcmp>
    43d8:	d8c01517 	ldw	r3,84(sp)
    43dc:	0080d60e 	bge	zero,r2,4738 <_dtoa_r+0xf0c>
    43e0:	b13fffc3 	ldbu	r4,-1(r22)
    43e4:	b0ffff84 	addi	r3,r22,-2
    43e8:	01800e44 	movi	r6,57
    43ec:	00000306 	br	43fc <_dtoa_r+0xbd0>
    43f0:	19000003 	ldbu	r4,0(r3)
    43f4:	102d883a 	mov	r22,r2
    43f8:	18ffffc4 	addi	r3,r3,-1
    43fc:	21403fcc 	andi	r5,r4,255
    4400:	2940201c 	xori	r5,r5,128
    4404:	297fe004 	addi	r5,r5,-128
    4408:	b0bfffc4 	addi	r2,r22,-1
    440c:	2981a71e 	bne	r5,r6,4aac <_dtoa_r+0x1280>
    4410:	b8bff71e 	bne	r23,r2,43f0 <_dtoa_r+0xbc4>
    4414:	d8800617 	ldw	r2,24(sp)
    4418:	10800044 	addi	r2,r2,1
    441c:	d8800615 	stw	r2,24(sp)
    4420:	00800c44 	movi	r2,49
    4424:	b8800005 	stb	r2,0(r23)
    4428:	8009883a 	mov	r4,r16
    442c:	a00b883a 	mov	r5,r20
    4430:	0006cec0 	call	6cec <_Bfree>
    4434:	a83e9e26 	beq	r21,zero,3eb0 <_dtoa_r+0x684>
    4438:	88000426 	beq	r17,zero,444c <_dtoa_r+0xc20>
    443c:	8d400326 	beq	r17,r21,444c <_dtoa_r+0xc20>
    4440:	8009883a 	mov	r4,r16
    4444:	880b883a 	mov	r5,r17
    4448:	0006cec0 	call	6cec <_Bfree>
    444c:	8009883a 	mov	r4,r16
    4450:	a80b883a 	mov	r5,r21
    4454:	0006cec0 	call	6cec <_Bfree>
    4458:	003e9506 	br	3eb0 <_dtoa_r+0x684>
    445c:	00c00044 	movi	r3,1
    4460:	d8c00d15 	stw	r3,52(sp)
    4464:	003d9f06 	br	3ae4 <_dtoa_r+0x2b8>
    4468:	d9000817 	ldw	r4,32(sp)
    446c:	d8800617 	ldw	r2,24(sp)
    4470:	d8000b15 	stw	zero,44(sp)
    4474:	2089c83a 	sub	r4,r4,r2
    4478:	0087c83a 	sub	r3,zero,r2
    447c:	d9000815 	stw	r4,32(sp)
    4480:	d8c00a15 	stw	r3,40(sp)
    4484:	003da306 	br	3b14 <_dtoa_r+0x2e8>
    4488:	0529c83a 	sub	r20,zero,r20
    448c:	dd000815 	stw	r20,32(sp)
    4490:	d8000715 	stw	zero,28(sp)
    4494:	003d9806 	br	3af8 <_dtoa_r+0x2cc>
    4498:	d9000617 	ldw	r4,24(sp)
    449c:	000a4500 	call	a450 <__floatsidf>
    44a0:	1009883a 	mov	r4,r2
    44a4:	180b883a 	mov	r5,r3
    44a8:	980d883a 	mov	r6,r19
    44ac:	900f883a 	mov	r7,r18
    44b0:	000a2d00 	call	a2d0 <__nedf2>
    44b4:	103d7a26 	beq	r2,zero,3aa0 <_dtoa_r+0x274>
    44b8:	d8800617 	ldw	r2,24(sp)
    44bc:	10bfffc4 	addi	r2,r2,-1
    44c0:	d8800615 	stw	r2,24(sp)
    44c4:	003d7606 	br	3aa0 <_dtoa_r+0x274>
    44c8:	dcc00a17 	ldw	r19,40(sp)
    44cc:	dc800817 	ldw	r18,32(sp)
    44d0:	002b883a 	mov	r21,zero
    44d4:	003f4906 	br	41fc <_dtoa_r+0x9d0>
    44d8:	00800704 	movi	r2,28
    44dc:	d8c00817 	ldw	r3,32(sp)
    44e0:	d9000717 	ldw	r4,28(sp)
    44e4:	90a5883a 	add	r18,r18,r2
    44e8:	1887883a 	add	r3,r3,r2
    44ec:	2089883a 	add	r4,r4,r2
    44f0:	d8c00815 	stw	r3,32(sp)
    44f4:	d9000715 	stw	r4,28(sp)
    44f8:	003f8406 	br	430c <_dtoa_r+0xae0>
    44fc:	d9c00317 	ldw	r7,12(sp)
    4500:	013efb84 	movi	r4,-1042
    4504:	2509c83a 	sub	r4,r4,r20
    4508:	3908983a 	sll	r4,r7,r4
    450c:	003d3006 	br	39d0 <_dtoa_r+0x1a4>
    4510:	d8000d15 	stw	zero,52(sp)
    4514:	003d7306 	br	3ae4 <_dtoa_r+0x2b8>
    4518:	0480050e 	bge	zero,r18,4530 <_dtoa_r+0xd04>
    451c:	a80b883a 	mov	r5,r21
    4520:	8009883a 	mov	r4,r16
    4524:	900d883a 	mov	r6,r18
    4528:	00074340 	call	7434 <__lshift>
    452c:	102b883a 	mov	r21,r2
    4530:	8801611e 	bne	r17,zero,4ab8 <_dtoa_r+0x128c>
    4534:	a827883a 	mov	r19,r21
    4538:	d8c00317 	ldw	r3,12(sp)
    453c:	d9000917 	ldw	r4,36(sp)
    4540:	b8bfffc4 	addi	r2,r23,-1
    4544:	18c0004c 	andi	r3,r3,1
    4548:	1105883a 	add	r2,r2,r4
    454c:	b825883a 	mov	r18,r23
    4550:	d8800515 	stw	r2,20(sp)
    4554:	a823883a 	mov	r17,r21
    4558:	d8c00315 	stw	r3,12(sp)
    455c:	ddc00715 	stw	r23,28(sp)
    4560:	e009883a 	mov	r4,fp
    4564:	a00b883a 	mov	r5,r20
    4568:	00035f00 	call	35f0 <quorem>
    456c:	e009883a 	mov	r4,fp
    4570:	880b883a 	mov	r5,r17
    4574:	102d883a 	mov	r22,r2
    4578:	00075900 	call	7590 <__mcmp>
    457c:	980d883a 	mov	r6,r19
    4580:	8009883a 	mov	r4,r16
    4584:	a00b883a 	mov	r5,r20
    4588:	102b883a 	mov	r21,r2
    458c:	00075e80 	call	75e8 <__mdiff>
    4590:	100d883a 	mov	r6,r2
    4594:	10800317 	ldw	r2,12(r2)
    4598:	b5c00c04 	addi	r23,r22,48
    459c:	10008c26 	beq	r2,zero,47d0 <_dtoa_r+0xfa4>
    45a0:	8009883a 	mov	r4,r16
    45a4:	300b883a 	mov	r5,r6
    45a8:	0006cec0 	call	6cec <_Bfree>
    45ac:	00800044 	movi	r2,1
    45b0:	a8007116 	blt	r21,zero,4778 <_dtoa_r+0xf4c>
    45b4:	a800041e 	bne	r21,zero,45c8 <_dtoa_r+0xd9c>
    45b8:	d9c00417 	ldw	r7,16(sp)
    45bc:	3800021e 	bne	r7,zero,45c8 <_dtoa_r+0xd9c>
    45c0:	d8c00317 	ldw	r3,12(sp)
    45c4:	18006c26 	beq	r3,zero,4778 <_dtoa_r+0xf4c>
    45c8:	00814c16 	blt	zero,r2,4afc <_dtoa_r+0x12d0>
    45cc:	d8c00517 	ldw	r3,20(sp)
    45d0:	95400044 	addi	r21,r18,1
    45d4:	95c00005 	stb	r23,0(r18)
    45d8:	a82d883a 	mov	r22,r21
    45dc:	90c14d26 	beq	r18,r3,4b14 <_dtoa_r+0x12e8>
    45e0:	e00b883a 	mov	r5,fp
    45e4:	8009883a 	mov	r4,r16
    45e8:	01800284 	movi	r6,10
    45ec:	000f883a 	mov	r7,zero
    45f0:	0006d140 	call	6d14 <__multadd>
    45f4:	1039883a 	mov	fp,r2
    45f8:	8cc08b26 	beq	r17,r19,4828 <_dtoa_r+0xffc>
    45fc:	880b883a 	mov	r5,r17
    4600:	01800284 	movi	r6,10
    4604:	000f883a 	mov	r7,zero
    4608:	8009883a 	mov	r4,r16
    460c:	0006d140 	call	6d14 <__multadd>
    4610:	980b883a 	mov	r5,r19
    4614:	8009883a 	mov	r4,r16
    4618:	01800284 	movi	r6,10
    461c:	000f883a 	mov	r7,zero
    4620:	1023883a 	mov	r17,r2
    4624:	0006d140 	call	6d14 <__multadd>
    4628:	1027883a 	mov	r19,r2
    462c:	a825883a 	mov	r18,r21
    4630:	003fcb06 	br	4560 <_dtoa_r+0xd34>
    4634:	d9c00417 	ldw	r7,16(sp)
    4638:	00800104 	movi	r2,4
    463c:	3880e426 	beq	r7,r2,49d0 <_dtoa_r+0x11a4>
    4640:	00800144 	movi	r2,5
    4644:	38be3c1e 	bne	r7,r2,3f38 <_dtoa_r+0x70c>
    4648:	00c00044 	movi	r3,1
    464c:	d8c00c15 	stw	r3,48(sp)
    4650:	d9c02117 	ldw	r7,132(sp)
    4654:	d8800617 	ldw	r2,24(sp)
    4658:	388f883a 	add	r7,r7,r2
    465c:	3c800044 	addi	r18,r7,1
    4660:	d9c00e15 	stw	r7,56(sp)
    4664:	dc800915 	stw	r18,36(sp)
    4668:	04bd3e16 	blt	zero,r18,3b64 <_dtoa_r+0x338>
    466c:	80001115 	stw	zero,68(r16)
    4670:	000b883a 	mov	r5,zero
    4674:	003d4606 	br	3b90 <_dtoa_r+0x364>
    4678:	d8c00317 	ldw	r3,12(sp)
    467c:	183f0e1e 	bne	r3,zero,42b8 <_dtoa_r+0xa8c>
    4680:	00c00434 	movhi	r3,16
    4684:	18ffffc4 	addi	r3,r3,-1
    4688:	88c6703a 	and	r3,r17,r3
    468c:	183f0a1e 	bne	r3,zero,42b8 <_dtoa_r+0xa8c>
    4690:	8c5ffc2c 	andhi	r17,r17,32752
    4694:	883f0826 	beq	r17,zero,42b8 <_dtoa_r+0xa8c>
    4698:	d9000817 	ldw	r4,32(sp)
    469c:	d9c00717 	ldw	r7,28(sp)
    46a0:	1023883a 	mov	r17,r2
    46a4:	2089883a 	add	r4,r4,r2
    46a8:	388f883a 	add	r7,r7,r2
    46ac:	d9000815 	stw	r4,32(sp)
    46b0:	d9c00715 	stw	r7,28(sp)
    46b4:	003f0106 	br	42bc <_dtoa_r+0xa90>
    46b8:	9005883a 	mov	r2,r18
    46bc:	003ed306 	br	420c <_dtoa_r+0x9e0>
    46c0:	d8800917 	ldw	r2,36(sp)
    46c4:	00be3516 	blt	zero,r2,3f9c <_dtoa_r+0x770>
    46c8:	1000b61e 	bne	r2,zero,49a4 <_dtoa_r+0x1178>
    46cc:	9009883a 	mov	r4,r18
    46d0:	980b883a 	mov	r5,r19
    46d4:	000d883a 	mov	r6,zero
    46d8:	01d00534 	movhi	r7,16404
    46dc:	0009ddc0 	call	9ddc <__muldf3>
    46e0:	d9800317 	ldw	r6,12(sp)
    46e4:	1009883a 	mov	r4,r2
    46e8:	180b883a 	mov	r5,r3
    46ec:	880f883a 	mov	r7,r17
    46f0:	000a3900 	call	a390 <__gedf2>
    46f4:	0029883a 	mov	r20,zero
    46f8:	002b883a 	mov	r21,zero
    46fc:	10007e16 	blt	r2,zero,48f8 <_dtoa_r+0x10cc>
    4700:	d8802117 	ldw	r2,132(sp)
    4704:	b82d883a 	mov	r22,r23
    4708:	0084303a 	nor	r2,zero,r2
    470c:	d8800615 	stw	r2,24(sp)
    4710:	8009883a 	mov	r4,r16
    4714:	a00b883a 	mov	r5,r20
    4718:	0006cec0 	call	6cec <_Bfree>
    471c:	a83f4b1e 	bne	r21,zero,444c <_dtoa_r+0xc20>
    4720:	003de306 	br	3eb0 <_dtoa_r+0x684>
    4724:	e00b883a 	mov	r5,fp
    4728:	8009883a 	mov	r4,r16
    472c:	00073080 	call	7308 <__pow5mult>
    4730:	1039883a 	mov	fp,r2
    4734:	003ed206 	br	4280 <_dtoa_r+0xa54>
    4738:	1000021e 	bne	r2,zero,4744 <_dtoa_r+0xf18>
    473c:	18c0004c 	andi	r3,r3,1
    4740:	183f271e 	bne	r3,zero,43e0 <_dtoa_r+0xbb4>
    4744:	01000c04 	movi	r4,48
    4748:	00000106 	br	4750 <_dtoa_r+0xf24>
    474c:	102d883a 	mov	r22,r2
    4750:	b0bfffc4 	addi	r2,r22,-1
    4754:	10c00007 	ldb	r3,0(r2)
    4758:	193ffc26 	beq	r3,r4,474c <_dtoa_r+0xf20>
    475c:	003f3206 	br	4428 <_dtoa_r+0xbfc>
    4760:	d8c00f17 	ldw	r3,60(sp)
    4764:	18015026 	beq	r3,zero,4ca8 <_dtoa_r+0x147c>
    4768:	10810cc4 	addi	r2,r2,1075
    476c:	dcc00a17 	ldw	r19,40(sp)
    4770:	dc800817 	ldw	r18,32(sp)
    4774:	003e9706 	br	41d4 <_dtoa_r+0x9a8>
    4778:	b807883a 	mov	r3,r23
    477c:	182b883a 	mov	r21,r3
    4780:	ddc00717 	ldw	r23,28(sp)
    4784:	00800e0e 	bge	zero,r2,47c0 <_dtoa_r+0xf94>
    4788:	e00b883a 	mov	r5,fp
    478c:	01800044 	movi	r6,1
    4790:	8009883a 	mov	r4,r16
    4794:	d8c01515 	stw	r3,84(sp)
    4798:	00074340 	call	7434 <__lshift>
    479c:	1009883a 	mov	r4,r2
    47a0:	a00b883a 	mov	r5,r20
    47a4:	1039883a 	mov	fp,r2
    47a8:	00075900 	call	7590 <__mcmp>
    47ac:	d8c01517 	ldw	r3,84(sp)
    47b0:	0081880e 	bge	zero,r2,4dd4 <_dtoa_r+0x15a8>
    47b4:	00800e44 	movi	r2,57
    47b8:	b0c00c44 	addi	r3,r22,49
    47bc:	a8816326 	beq	r21,r2,4d4c <_dtoa_r+0x1520>
    47c0:	90c00005 	stb	r3,0(r18)
    47c4:	95800044 	addi	r22,r18,1
    47c8:	982b883a 	mov	r21,r19
    47cc:	003f1606 	br	4428 <_dtoa_r+0xbfc>
    47d0:	300b883a 	mov	r5,r6
    47d4:	e009883a 	mov	r4,fp
    47d8:	d9801515 	stw	r6,84(sp)
    47dc:	00075900 	call	7590 <__mcmp>
    47e0:	d9801517 	ldw	r6,84(sp)
    47e4:	8009883a 	mov	r4,r16
    47e8:	d8801515 	stw	r2,84(sp)
    47ec:	300b883a 	mov	r5,r6
    47f0:	0006cec0 	call	6cec <_Bfree>
    47f4:	d8801517 	ldw	r2,84(sp)
    47f8:	103f6d1e 	bne	r2,zero,45b0 <_dtoa_r+0xd84>
    47fc:	d9c00417 	ldw	r7,16(sp)
    4800:	383f6b1e 	bne	r7,zero,45b0 <_dtoa_r+0xd84>
    4804:	d8c00317 	ldw	r3,12(sp)
    4808:	183f691e 	bne	r3,zero,45b0 <_dtoa_r+0xd84>
    480c:	b807883a 	mov	r3,r23
    4810:	00800e44 	movi	r2,57
    4814:	ddc00717 	ldw	r23,28(sp)
    4818:	18814c26 	beq	r3,r2,4d4c <_dtoa_r+0x1520>
    481c:	057fe80e 	bge	zero,r21,47c0 <_dtoa_r+0xf94>
    4820:	b0c00c44 	addi	r3,r22,49
    4824:	003fe606 	br	47c0 <_dtoa_r+0xf94>
    4828:	880b883a 	mov	r5,r17
    482c:	8009883a 	mov	r4,r16
    4830:	01800284 	movi	r6,10
    4834:	000f883a 	mov	r7,zero
    4838:	0006d140 	call	6d14 <__multadd>
    483c:	1023883a 	mov	r17,r2
    4840:	1027883a 	mov	r19,r2
    4844:	a825883a 	mov	r18,r21
    4848:	003f4506 	br	4560 <_dtoa_r+0xd34>
    484c:	e009883a 	mov	r4,fp
    4850:	a00b883a 	mov	r5,r20
    4854:	00075900 	call	7590 <__mcmp>
    4858:	103ebc0e 	bge	r2,zero,434c <_dtoa_r+0xb20>
    485c:	e00b883a 	mov	r5,fp
    4860:	8009883a 	mov	r4,r16
    4864:	01800284 	movi	r6,10
    4868:	000f883a 	mov	r7,zero
    486c:	0006d140 	call	6d14 <__multadd>
    4870:	1039883a 	mov	fp,r2
    4874:	d8800617 	ldw	r2,24(sp)
    4878:	d8c00c17 	ldw	r3,48(sp)
    487c:	10bfffc4 	addi	r2,r2,-1
    4880:	d8800615 	stw	r2,24(sp)
    4884:	1801571e 	bne	r3,zero,4de4 <_dtoa_r+0x15b8>
    4888:	d9c00e17 	ldw	r7,56(sp)
    488c:	d9c00915 	stw	r7,36(sp)
    4890:	003eae06 	br	434c <_dtoa_r+0xb20>
    4894:	a0800417 	ldw	r2,16(r20)
    4898:	10800104 	addi	r2,r2,4
    489c:	1085883a 	add	r2,r2,r2
    48a0:	1085883a 	add	r2,r2,r2
    48a4:	a085883a 	add	r2,r20,r2
    48a8:	11000017 	ldw	r4,0(r2)
    48ac:	0006f5c0 	call	6f5c <__hi0bits>
    48b0:	00c00804 	movi	r3,32
    48b4:	1885c83a 	sub	r2,r3,r2
    48b8:	003e8306 	br	42c8 <_dtoa_r+0xa9c>
    48bc:	d9c00417 	ldw	r7,16(sp)
    48c0:	00800084 	movi	r2,2
    48c4:	11fea30e 	bge	r2,r7,4354 <_dtoa_r+0xb28>
    48c8:	d8800917 	ldw	r2,36(sp)
    48cc:	103f8c1e 	bne	r2,zero,4700 <_dtoa_r+0xed4>
    48d0:	a00b883a 	mov	r5,r20
    48d4:	8009883a 	mov	r4,r16
    48d8:	01800144 	movi	r6,5
    48dc:	000f883a 	mov	r7,zero
    48e0:	0006d140 	call	6d14 <__multadd>
    48e4:	e009883a 	mov	r4,fp
    48e8:	100b883a 	mov	r5,r2
    48ec:	1029883a 	mov	r20,r2
    48f0:	00075900 	call	7590 <__mcmp>
    48f4:	00bf820e 	bge	zero,r2,4700 <_dtoa_r+0xed4>
    48f8:	00800c44 	movi	r2,49
    48fc:	b8800005 	stb	r2,0(r23)
    4900:	d8800617 	ldw	r2,24(sp)
    4904:	bd800044 	addi	r22,r23,1
    4908:	10800044 	addi	r2,r2,1
    490c:	d8800615 	stw	r2,24(sp)
    4910:	003f7f06 	br	4710 <_dtoa_r+0xee4>
    4914:	dc000417 	ldw	r16,16(sp)
    4918:	003d6506 	br	3eb0 <_dtoa_r+0x684>
    491c:	9009883a 	mov	r4,r18
    4920:	000a4500 	call	a450 <__floatsidf>
    4924:	1009883a 	mov	r4,r2
    4928:	180b883a 	mov	r5,r3
    492c:	980d883a 	mov	r6,r19
    4930:	a00f883a 	mov	r7,r20
    4934:	0009ddc0 	call	9ddc <__muldf3>
    4938:	1009883a 	mov	r4,r2
    493c:	180b883a 	mov	r5,r3
    4940:	000d883a 	mov	r6,zero
    4944:	01d00734 	movhi	r7,16412
    4948:	0009d280 	call	9d28 <__adddf3>
    494c:	057f3034 	movhi	r21,64704
    4950:	1025883a 	mov	r18,r2
    4954:	1d6b883a 	add	r21,r3,r21
    4958:	9809883a 	mov	r4,r19
    495c:	a00b883a 	mov	r5,r20
    4960:	000d883a 	mov	r6,zero
    4964:	01d00534 	movhi	r7,16404
    4968:	0009d7c0 	call	9d7c <__subdf3>
    496c:	1009883a 	mov	r4,r2
    4970:	180b883a 	mov	r5,r3
    4974:	900d883a 	mov	r6,r18
    4978:	a80f883a 	mov	r7,r21
    497c:	1027883a 	mov	r19,r2
    4980:	1829883a 	mov	r20,r3
    4984:	000a32c0 	call	a32c <__gtdf2>
    4988:	00806616 	blt	zero,r2,4b24 <_dtoa_r+0x12f8>
    498c:	a9e0003c 	xorhi	r7,r21,32768
    4990:	9809883a 	mov	r4,r19
    4994:	a00b883a 	mov	r5,r20
    4998:	900d883a 	mov	r6,r18
    499c:	000a3f40 	call	a3f4 <__ltdf2>
    49a0:	103d710e 	bge	r2,zero,3f68 <_dtoa_r+0x73c>
    49a4:	0029883a 	mov	r20,zero
    49a8:	002b883a 	mov	r21,zero
    49ac:	003f5406 	br	4700 <_dtoa_r+0xed4>
    49b0:	d9800a17 	ldw	r6,40(sp)
    49b4:	e00b883a 	mov	r5,fp
    49b8:	8009883a 	mov	r4,r16
    49bc:	00073080 	call	7308 <__pow5mult>
    49c0:	1039883a 	mov	fp,r2
    49c4:	003e2e06 	br	4280 <_dtoa_r+0xa54>
    49c8:	d8000c15 	stw	zero,48(sp)
    49cc:	003f2006 	br	4650 <_dtoa_r+0xe24>
    49d0:	00800044 	movi	r2,1
    49d4:	d8800c15 	stw	r2,48(sp)
    49d8:	003c5d06 	br	3b50 <_dtoa_r+0x324>
    49dc:	d8c00a17 	ldw	r3,40(sp)
    49e0:	d9000b17 	ldw	r4,44(sp)
    49e4:	dcc00a15 	stw	r19,40(sp)
    49e8:	98c5c83a 	sub	r2,r19,r3
    49ec:	2089883a 	add	r4,r4,r2
    49f0:	d9000b15 	stw	r4,44(sp)
    49f4:	0027883a 	mov	r19,zero
    49f8:	003df206 	br	41c4 <_dtoa_r+0x998>
    49fc:	d9000317 	ldw	r4,12(sp)
    4a00:	8829883a 	mov	r20,r17
    4a04:	04800084 	movi	r18,2
    4a08:	d9001015 	stw	r4,64(sp)
    4a0c:	003c8106 	br	3c14 <_dtoa_r+0x3e8>
    4a10:	04800044 	movi	r18,1
    4a14:	dc800e15 	stw	r18,56(sp)
    4a18:	dc800915 	stw	r18,36(sp)
    4a1c:	dc802115 	stw	r18,132(sp)
    4a20:	003f1206 	br	466c <_dtoa_r+0xe40>
    4a24:	d8800617 	ldw	r2,24(sp)
    4a28:	00abc83a 	sub	r21,zero,r2
    4a2c:	a800a426 	beq	r21,zero,4cc0 <_dtoa_r+0x1494>
    4a30:	a88003cc 	andi	r2,r21,15
    4a34:	100490fa 	slli	r2,r2,3
    4a38:	00c00074 	movhi	r3,1
    4a3c:	18f6bf04 	addi	r3,r3,-9476
    4a40:	d9000317 	ldw	r4,12(sp)
    4a44:	1885883a 	add	r2,r3,r2
    4a48:	11800017 	ldw	r6,0(r2)
    4a4c:	11c00117 	ldw	r7,4(r2)
    4a50:	a82bd13a 	srai	r21,r21,4
    4a54:	880b883a 	mov	r5,r17
    4a58:	0009ddc0 	call	9ddc <__muldf3>
    4a5c:	1027883a 	mov	r19,r2
    4a60:	1829883a 	mov	r20,r3
    4a64:	a800e826 	beq	r21,zero,4e08 <_dtoa_r+0x15dc>
    4a68:	05800074 	movhi	r22,1
    4a6c:	b5b6b504 	addi	r22,r22,-9516
    4a70:	04800084 	movi	r18,2
    4a74:	a980004c 	andi	r6,r21,1
    4a78:	1009883a 	mov	r4,r2
    4a7c:	a82bd07a 	srai	r21,r21,1
    4a80:	180b883a 	mov	r5,r3
    4a84:	30000426 	beq	r6,zero,4a98 <_dtoa_r+0x126c>
    4a88:	b1800017 	ldw	r6,0(r22)
    4a8c:	b1c00117 	ldw	r7,4(r22)
    4a90:	94800044 	addi	r18,r18,1
    4a94:	0009ddc0 	call	9ddc <__muldf3>
    4a98:	b5800204 	addi	r22,r22,8
    4a9c:	a83ff51e 	bne	r21,zero,4a74 <_dtoa_r+0x1248>
    4aa0:	1027883a 	mov	r19,r2
    4aa4:	1829883a 	mov	r20,r3
    4aa8:	003c7306 	br	3c78 <_dtoa_r+0x44c>
    4aac:	21000044 	addi	r4,r4,1
    4ab0:	11000005 	stb	r4,0(r2)
    4ab4:	003e5c06 	br	4428 <_dtoa_r+0xbfc>
    4ab8:	a9400117 	ldw	r5,4(r21)
    4abc:	8009883a 	mov	r4,r16
    4ac0:	0006c440 	call	6c44 <_Balloc>
    4ac4:	a9800417 	ldw	r6,16(r21)
    4ac8:	11000304 	addi	r4,r2,12
    4acc:	a9400304 	addi	r5,r21,12
    4ad0:	31800084 	addi	r6,r6,2
    4ad4:	318d883a 	add	r6,r6,r6
    4ad8:	318d883a 	add	r6,r6,r6
    4adc:	1023883a 	mov	r17,r2
    4ae0:	000689c0 	call	689c <memcpy>
    4ae4:	8009883a 	mov	r4,r16
    4ae8:	880b883a 	mov	r5,r17
    4aec:	01800044 	movi	r6,1
    4af0:	00074340 	call	7434 <__lshift>
    4af4:	1027883a 	mov	r19,r2
    4af8:	003e8f06 	br	4538 <_dtoa_r+0xd0c>
    4afc:	b807883a 	mov	r3,r23
    4b00:	00800e44 	movi	r2,57
    4b04:	ddc00717 	ldw	r23,28(sp)
    4b08:	18809026 	beq	r3,r2,4d4c <_dtoa_r+0x1520>
    4b0c:	18c00044 	addi	r3,r3,1
    4b10:	003f2b06 	br	47c0 <_dtoa_r+0xf94>
    4b14:	b807883a 	mov	r3,r23
    4b18:	982b883a 	mov	r21,r19
    4b1c:	ddc00717 	ldw	r23,28(sp)
    4b20:	003e2406 	br	43b4 <_dtoa_r+0xb88>
    4b24:	0029883a 	mov	r20,zero
    4b28:	002b883a 	mov	r21,zero
    4b2c:	003f7206 	br	48f8 <_dtoa_r+0x10cc>
    4b30:	593fffc4 	addi	r4,r11,-1
    4b34:	200490fa 	slli	r2,r4,3
    4b38:	00c00074 	movhi	r3,1
    4b3c:	18f6bf04 	addi	r3,r3,-9476
    4b40:	d9001015 	stw	r4,64(sp)
    4b44:	1885883a 	add	r2,r3,r2
    4b48:	11000017 	ldw	r4,0(r2)
    4b4c:	11400117 	ldw	r5,4(r2)
    4b50:	900d883a 	mov	r6,r18
    4b54:	a80f883a 	mov	r7,r21
    4b58:	dac01615 	stw	r11,88(sp)
    4b5c:	0009ddc0 	call	9ddc <__muldf3>
    4b60:	a00b883a 	mov	r5,r20
    4b64:	9809883a 	mov	r4,r19
    4b68:	d8c01215 	stw	r3,72(sp)
    4b6c:	d8801115 	stw	r2,68(sp)
    4b70:	000a5240 	call	a524 <__fixdfsi>
    4b74:	1009883a 	mov	r4,r2
    4b78:	1025883a 	mov	r18,r2
    4b7c:	000a4500 	call	a450 <__floatsidf>
    4b80:	9809883a 	mov	r4,r19
    4b84:	a00b883a 	mov	r5,r20
    4b88:	100d883a 	mov	r6,r2
    4b8c:	180f883a 	mov	r7,r3
    4b90:	94800c04 	addi	r18,r18,48
    4b94:	0009d7c0 	call	9d7c <__subdf3>
    4b98:	bc800005 	stb	r18,0(r23)
    4b9c:	dac01617 	ldw	r11,88(sp)
    4ba0:	102b883a 	mov	r21,r2
    4ba4:	00800044 	movi	r2,1
    4ba8:	bd800044 	addi	r22,r23,1
    4bac:	1815883a 	mov	r10,r3
    4bb0:	58802226 	beq	r11,r2,4c3c <_dtoa_r+0x1410>
    4bb4:	bad7883a 	add	r11,r23,r11
    4bb8:	dc001415 	stw	r16,80(sp)
    4bbc:	a805883a 	mov	r2,r21
    4bc0:	b027883a 	mov	r19,r22
    4bc4:	5821883a 	mov	r16,r11
    4bc8:	882b883a 	mov	r21,r17
    4bcc:	000d883a 	mov	r6,zero
    4bd0:	01d00934 	movhi	r7,16420
    4bd4:	1009883a 	mov	r4,r2
    4bd8:	180b883a 	mov	r5,r3
    4bdc:	0009ddc0 	call	9ddc <__muldf3>
    4be0:	180b883a 	mov	r5,r3
    4be4:	1009883a 	mov	r4,r2
    4be8:	1829883a 	mov	r20,r3
    4bec:	1023883a 	mov	r17,r2
    4bf0:	000a5240 	call	a524 <__fixdfsi>
    4bf4:	1009883a 	mov	r4,r2
    4bf8:	1025883a 	mov	r18,r2
    4bfc:	000a4500 	call	a450 <__floatsidf>
    4c00:	8809883a 	mov	r4,r17
    4c04:	a00b883a 	mov	r5,r20
    4c08:	100d883a 	mov	r6,r2
    4c0c:	180f883a 	mov	r7,r3
    4c10:	94800c04 	addi	r18,r18,48
    4c14:	0009d7c0 	call	9d7c <__subdf3>
    4c18:	9cc00044 	addi	r19,r19,1
    4c1c:	9cbfffc5 	stb	r18,-1(r19)
    4c20:	9c3fea1e 	bne	r19,r16,4bcc <_dtoa_r+0x13a0>
    4c24:	1815883a 	mov	r10,r3
    4c28:	d8c01017 	ldw	r3,64(sp)
    4c2c:	dc001417 	ldw	r16,80(sp)
    4c30:	a823883a 	mov	r17,r21
    4c34:	b0ed883a 	add	r22,r22,r3
    4c38:	102b883a 	mov	r21,r2
    4c3c:	d9001117 	ldw	r4,68(sp)
    4c40:	d9401217 	ldw	r5,72(sp)
    4c44:	000d883a 	mov	r6,zero
    4c48:	01cff834 	movhi	r7,16352
    4c4c:	da801515 	stw	r10,84(sp)
    4c50:	0009d280 	call	9d28 <__adddf3>
    4c54:	da801517 	ldw	r10,84(sp)
    4c58:	1009883a 	mov	r4,r2
    4c5c:	180b883a 	mov	r5,r3
    4c60:	500f883a 	mov	r7,r10
    4c64:	a80d883a 	mov	r6,r21
    4c68:	000a3f40 	call	a3f4 <__ltdf2>
    4c6c:	da801517 	ldw	r10,84(sp)
    4c70:	10003b0e 	bge	r2,zero,4d60 <_dtoa_r+0x1534>
    4c74:	d9c01317 	ldw	r7,76(sp)
    4c78:	b53fffc3 	ldbu	r20,-1(r22)
    4c7c:	d9c00615 	stw	r7,24(sp)
    4c80:	003d3106 	br	4148 <_dtoa_r+0x91c>
    4c84:	d8800817 	ldw	r2,32(sp)
    4c88:	11e5c83a 	sub	r18,r2,r7
    4c8c:	0005883a 	mov	r2,zero
    4c90:	003d5006 	br	41d4 <_dtoa_r+0x9a8>
    4c94:	05800044 	movi	r22,1
    4c98:	003dc406 	br	43ac <_dtoa_r+0xb80>
    4c9c:	a5000044 	addi	r20,r20,1
    4ca0:	15000005 	stb	r20,0(r2)
    4ca4:	003c8206 	br	3eb0 <_dtoa_r+0x684>
    4ca8:	d8800217 	ldw	r2,8(sp)
    4cac:	00c00d84 	movi	r3,54
    4cb0:	dcc00a17 	ldw	r19,40(sp)
    4cb4:	1885c83a 	sub	r2,r3,r2
    4cb8:	dc800817 	ldw	r18,32(sp)
    4cbc:	003d4506 	br	41d4 <_dtoa_r+0x9a8>
    4cc0:	dcc00317 	ldw	r19,12(sp)
    4cc4:	8829883a 	mov	r20,r17
    4cc8:	04800084 	movi	r18,2
    4ccc:	003bea06 	br	3c78 <_dtoa_r+0x44c>
    4cd0:	d9000917 	ldw	r4,36(sp)
    4cd4:	203f1126 	beq	r4,zero,491c <_dtoa_r+0x10f0>
    4cd8:	d9c00e17 	ldw	r7,56(sp)
    4cdc:	01fca20e 	bge	zero,r7,3f68 <_dtoa_r+0x73c>
    4ce0:	a00b883a 	mov	r5,r20
    4ce4:	9809883a 	mov	r4,r19
    4ce8:	000d883a 	mov	r6,zero
    4cec:	01d00934 	movhi	r7,16420
    4cf0:	0009ddc0 	call	9ddc <__muldf3>
    4cf4:	91000044 	addi	r4,r18,1
    4cf8:	1027883a 	mov	r19,r2
    4cfc:	1829883a 	mov	r20,r3
    4d00:	000a4500 	call	a450 <__floatsidf>
    4d04:	9809883a 	mov	r4,r19
    4d08:	a00b883a 	mov	r5,r20
    4d0c:	100d883a 	mov	r6,r2
    4d10:	180f883a 	mov	r7,r3
    4d14:	0009ddc0 	call	9ddc <__muldf3>
    4d18:	1009883a 	mov	r4,r2
    4d1c:	180b883a 	mov	r5,r3
    4d20:	000d883a 	mov	r6,zero
    4d24:	01d00734 	movhi	r7,16412
    4d28:	0009d280 	call	9d28 <__adddf3>
    4d2c:	1025883a 	mov	r18,r2
    4d30:	d8800617 	ldw	r2,24(sp)
    4d34:	057f3034 	movhi	r21,64704
    4d38:	1d6b883a 	add	r21,r3,r21
    4d3c:	10bfffc4 	addi	r2,r2,-1
    4d40:	d8801315 	stw	r2,76(sp)
    4d44:	dac00e17 	ldw	r11,56(sp)
    4d48:	003be706 	br	3ce8 <_dtoa_r+0x4bc>
    4d4c:	01000e44 	movi	r4,57
    4d50:	91000005 	stb	r4,0(r18)
    4d54:	95800044 	addi	r22,r18,1
    4d58:	982b883a 	mov	r21,r19
    4d5c:	003da106 	br	43e4 <_dtoa_r+0xbb8>
    4d60:	d9801117 	ldw	r6,68(sp)
    4d64:	d9c01217 	ldw	r7,72(sp)
    4d68:	0009883a 	mov	r4,zero
    4d6c:	014ff834 	movhi	r5,16352
    4d70:	da801515 	stw	r10,84(sp)
    4d74:	0009d7c0 	call	9d7c <__subdf3>
    4d78:	da801517 	ldw	r10,84(sp)
    4d7c:	1009883a 	mov	r4,r2
    4d80:	180b883a 	mov	r5,r3
    4d84:	a80d883a 	mov	r6,r21
    4d88:	500f883a 	mov	r7,r10
    4d8c:	000a32c0 	call	a32c <__gtdf2>
    4d90:	00bc750e 	bge	zero,r2,3f68 <_dtoa_r+0x73c>
    4d94:	01000c04 	movi	r4,48
    4d98:	00000106 	br	4da0 <_dtoa_r+0x1574>
    4d9c:	102d883a 	mov	r22,r2
    4da0:	b0bfffc4 	addi	r2,r22,-1
    4da4:	10c00007 	ldb	r3,0(r2)
    4da8:	193ffc26 	beq	r3,r4,4d9c <_dtoa_r+0x1570>
    4dac:	d8801317 	ldw	r2,76(sp)
    4db0:	d8800615 	stw	r2,24(sp)
    4db4:	003c3e06 	br	3eb0 <_dtoa_r+0x684>
    4db8:	d9001317 	ldw	r4,76(sp)
    4dbc:	df001117 	ldw	fp,68(sp)
    4dc0:	d9000615 	stw	r4,24(sp)
    4dc4:	003ce006 	br	4148 <_dtoa_r+0x91c>
    4dc8:	df001117 	ldw	fp,68(sp)
    4dcc:	dc401217 	ldw	r17,72(sp)
    4dd0:	003c6506 	br	3f68 <_dtoa_r+0x73c>
    4dd4:	103e7a1e 	bne	r2,zero,47c0 <_dtoa_r+0xf94>
    4dd8:	1880004c 	andi	r2,r3,1
    4ddc:	103e7826 	beq	r2,zero,47c0 <_dtoa_r+0xf94>
    4de0:	003e7406 	br	47b4 <_dtoa_r+0xf88>
    4de4:	8009883a 	mov	r4,r16
    4de8:	a80b883a 	mov	r5,r21
    4dec:	01800284 	movi	r6,10
    4df0:	000f883a 	mov	r7,zero
    4df4:	0006d140 	call	6d14 <__multadd>
    4df8:	d9000e17 	ldw	r4,56(sp)
    4dfc:	102b883a 	mov	r21,r2
    4e00:	d9000915 	stw	r4,36(sp)
    4e04:	003d5106 	br	434c <_dtoa_r+0xb20>
    4e08:	04800084 	movi	r18,2
    4e0c:	003b9a06 	br	3c78 <_dtoa_r+0x44c>
    4e10:	d8c01317 	ldw	r3,76(sp)
    4e14:	d8c00615 	stw	r3,24(sp)
    4e18:	003ccb06 	br	4148 <_dtoa_r+0x91c>
    4e1c:	d8c01317 	ldw	r3,76(sp)
    4e20:	d8c00615 	stw	r3,24(sp)
    4e24:	003c2206 	br	3eb0 <_dtoa_r+0x684>
    4e28:	20fd3826 	beq	r4,r3,430c <_dtoa_r+0xae0>
    4e2c:	00c00f04 	movi	r3,60
    4e30:	1885c83a 	sub	r2,r3,r2
    4e34:	003da906 	br	44dc <_dtoa_r+0xcb0>
    4e38:	000b883a 	mov	r5,zero
    4e3c:	003b5406 	br	3b90 <_dtoa_r+0x364>
    4e40:	04c00044 	movi	r19,1
    4e44:	003b3b06 	br	3b34 <_dtoa_r+0x308>

00004e48 <_fflush_r>:
    4e48:	defffb04 	addi	sp,sp,-20
    4e4c:	dcc00315 	stw	r19,12(sp)
    4e50:	dc400115 	stw	r17,4(sp)
    4e54:	dfc00415 	stw	ra,16(sp)
    4e58:	dc800215 	stw	r18,8(sp)
    4e5c:	dc000015 	stw	r16,0(sp)
    4e60:	2027883a 	mov	r19,r4
    4e64:	2823883a 	mov	r17,r5
    4e68:	20000226 	beq	r4,zero,4e74 <_fflush_r+0x2c>
    4e6c:	20800e17 	ldw	r2,56(r4)
    4e70:	10005726 	beq	r2,zero,4fd0 <_fflush_r+0x188>
    4e74:	8880030b 	ldhu	r2,12(r17)
    4e78:	10c0020c 	andi	r3,r2,8
    4e7c:	18ffffcc 	andi	r3,r3,65535
    4e80:	18e0001c 	xori	r3,r3,32768
    4e84:	18e00004 	addi	r3,r3,-32768
    4e88:	1800311e 	bne	r3,zero,4f50 <_fflush_r+0x108>
    4e8c:	89000117 	ldw	r4,4(r17)
    4e90:	10c20014 	ori	r3,r2,2048
    4e94:	88c0030d 	sth	r3,12(r17)
    4e98:	180b883a 	mov	r5,r3
    4e9c:	0100520e 	bge	zero,r4,4fe8 <_fflush_r+0x1a0>
    4ea0:	88c00a17 	ldw	r3,40(r17)
    4ea4:	18002226 	beq	r3,zero,4f30 <_fflush_r+0xe8>
    4ea8:	1084000c 	andi	r2,r2,4096
    4eac:	10bfffcc 	andi	r2,r2,65535
    4eb0:	10a0001c 	xori	r2,r2,32768
    4eb4:	10a00004 	addi	r2,r2,-32768
    4eb8:	10004e26 	beq	r2,zero,4ff4 <_fflush_r+0x1ac>
    4ebc:	8c001417 	ldw	r16,80(r17)
    4ec0:	2940010c 	andi	r5,r5,4
    4ec4:	297fffcc 	andi	r5,r5,65535
    4ec8:	2960001c 	xori	r5,r5,32768
    4ecc:	29600004 	addi	r5,r5,-32768
    4ed0:	28000626 	beq	r5,zero,4eec <_fflush_r+0xa4>
    4ed4:	89000117 	ldw	r4,4(r17)
    4ed8:	88800c17 	ldw	r2,48(r17)
    4edc:	8121c83a 	sub	r16,r16,r4
    4ee0:	10000226 	beq	r2,zero,4eec <_fflush_r+0xa4>
    4ee4:	88800f17 	ldw	r2,60(r17)
    4ee8:	80a1c83a 	sub	r16,r16,r2
    4eec:	89400717 	ldw	r5,28(r17)
    4ef0:	9809883a 	mov	r4,r19
    4ef4:	800d883a 	mov	r6,r16
    4ef8:	000f883a 	mov	r7,zero
    4efc:	183ee83a 	callr	r3
    4f00:	8080281e 	bne	r16,r2,4fa4 <_fflush_r+0x15c>
    4f04:	8880030b 	ldhu	r2,12(r17)
    4f08:	88c00417 	ldw	r3,16(r17)
    4f0c:	88000115 	stw	zero,4(r17)
    4f10:	113dffcc 	andi	r4,r2,63487
    4f14:	1084000c 	andi	r2,r2,4096
    4f18:	10bfffcc 	andi	r2,r2,65535
    4f1c:	10a0001c 	xori	r2,r2,32768
    4f20:	8900030d 	sth	r4,12(r17)
    4f24:	88c00015 	stw	r3,0(r17)
    4f28:	10a00004 	addi	r2,r2,-32768
    4f2c:	10002c1e 	bne	r2,zero,4fe0 <_fflush_r+0x198>
    4f30:	0005883a 	mov	r2,zero
    4f34:	dfc00417 	ldw	ra,16(sp)
    4f38:	dcc00317 	ldw	r19,12(sp)
    4f3c:	dc800217 	ldw	r18,8(sp)
    4f40:	dc400117 	ldw	r17,4(sp)
    4f44:	dc000017 	ldw	r16,0(sp)
    4f48:	dec00504 	addi	sp,sp,20
    4f4c:	f800283a 	ret
    4f50:	8c800417 	ldw	r18,16(r17)
    4f54:	903ff626 	beq	r18,zero,4f30 <_fflush_r+0xe8>
    4f58:	8c000017 	ldw	r16,0(r17)
    4f5c:	108000cc 	andi	r2,r2,3
    4f60:	8c800015 	stw	r18,0(r17)
    4f64:	84a1c83a 	sub	r16,r16,r18
    4f68:	10001b1e 	bne	r2,zero,4fd8 <_fflush_r+0x190>
    4f6c:	88800517 	ldw	r2,20(r17)
    4f70:	88800215 	stw	r2,8(r17)
    4f74:	04000316 	blt	zero,r16,4f84 <_fflush_r+0x13c>
    4f78:	003fed06 	br	4f30 <_fflush_r+0xe8>
    4f7c:	90a5883a 	add	r18,r18,r2
    4f80:	043feb0e 	bge	zero,r16,4f30 <_fflush_r+0xe8>
    4f84:	88800917 	ldw	r2,36(r17)
    4f88:	89400717 	ldw	r5,28(r17)
    4f8c:	800f883a 	mov	r7,r16
    4f90:	900d883a 	mov	r6,r18
    4f94:	9809883a 	mov	r4,r19
    4f98:	103ee83a 	callr	r2
    4f9c:	80a1c83a 	sub	r16,r16,r2
    4fa0:	00bff616 	blt	zero,r2,4f7c <_fflush_r+0x134>
    4fa4:	88c0030b 	ldhu	r3,12(r17)
    4fa8:	00bfffc4 	movi	r2,-1
    4fac:	18c01014 	ori	r3,r3,64
    4fb0:	88c0030d 	sth	r3,12(r17)
    4fb4:	dfc00417 	ldw	ra,16(sp)
    4fb8:	dcc00317 	ldw	r19,12(sp)
    4fbc:	dc800217 	ldw	r18,8(sp)
    4fc0:	dc400117 	ldw	r17,4(sp)
    4fc4:	dc000017 	ldw	r16,0(sp)
    4fc8:	dec00504 	addi	sp,sp,20
    4fcc:	f800283a 	ret
    4fd0:	00051040 	call	5104 <__sinit>
    4fd4:	003fa706 	br	4e74 <_fflush_r+0x2c>
    4fd8:	0005883a 	mov	r2,zero
    4fdc:	003fe406 	br	4f70 <_fflush_r+0x128>
    4fe0:	8c001415 	stw	r16,80(r17)
    4fe4:	003fd206 	br	4f30 <_fflush_r+0xe8>
    4fe8:	88c00f17 	ldw	r3,60(r17)
    4fec:	00ffac16 	blt	zero,r3,4ea0 <_fflush_r+0x58>
    4ff0:	003fcf06 	br	4f30 <_fflush_r+0xe8>
    4ff4:	89400717 	ldw	r5,28(r17)
    4ff8:	9809883a 	mov	r4,r19
    4ffc:	000d883a 	mov	r6,zero
    5000:	01c00044 	movi	r7,1
    5004:	183ee83a 	callr	r3
    5008:	1021883a 	mov	r16,r2
    500c:	00bfffc4 	movi	r2,-1
    5010:	80800326 	beq	r16,r2,5020 <_fflush_r+0x1d8>
    5014:	8940030b 	ldhu	r5,12(r17)
    5018:	88c00a17 	ldw	r3,40(r17)
    501c:	003fa806 	br	4ec0 <_fflush_r+0x78>
    5020:	98c00017 	ldw	r3,0(r19)
    5024:	00800744 	movi	r2,29
    5028:	18bfde1e 	bne	r3,r2,4fa4 <_fflush_r+0x15c>
    502c:	003fc006 	br	4f30 <_fflush_r+0xe8>

00005030 <fflush>:
    5030:	200b883a 	mov	r5,r4
    5034:	20000426 	beq	r4,zero,5048 <fflush+0x18>
    5038:	00800074 	movhi	r2,1
    503c:	10beb504 	addi	r2,r2,-1324
    5040:	11000017 	ldw	r4,0(r2)
    5044:	0004e481 	jmpi	4e48 <_fflush_r>
    5048:	00800074 	movhi	r2,1
    504c:	10beb404 	addi	r2,r2,-1328
    5050:	11000017 	ldw	r4,0(r2)
    5054:	01400034 	movhi	r5,0
    5058:	29539204 	addi	r5,r5,20040
    505c:	0005ce41 	jmpi	5ce4 <_fwalk_reent>

00005060 <__fp_lock>:
    5060:	0005883a 	mov	r2,zero
    5064:	f800283a 	ret

00005068 <__fp_unlock>:
    5068:	0005883a 	mov	r2,zero
    506c:	f800283a 	ret

00005070 <_cleanup_r>:
    5070:	01400074 	movhi	r5,1
    5074:	2962e904 	addi	r5,r5,-29788
    5078:	0005c3c1 	jmpi	5c3c <_fwalk>

0000507c <__sfmoreglue>:
    507c:	defffc04 	addi	sp,sp,-16
    5080:	dc800215 	stw	r18,8(sp)
    5084:	2825883a 	mov	r18,r5
    5088:	dc000015 	stw	r16,0(sp)
    508c:	01401704 	movi	r5,92
    5090:	2021883a 	mov	r16,r4
    5094:	9009883a 	mov	r4,r18
    5098:	dfc00315 	stw	ra,12(sp)
    509c:	dc400115 	stw	r17,4(sp)
    50a0:	000a8440 	call	a844 <__mulsi3>
    50a4:	8009883a 	mov	r4,r16
    50a8:	11400304 	addi	r5,r2,12
    50ac:	1023883a 	mov	r17,r2
    50b0:	00060200 	call	6020 <_malloc_r>
    50b4:	1021883a 	mov	r16,r2
    50b8:	10000726 	beq	r2,zero,50d8 <__sfmoreglue+0x5c>
    50bc:	11000304 	addi	r4,r2,12
    50c0:	10000015 	stw	zero,0(r2)
    50c4:	14800115 	stw	r18,4(r2)
    50c8:	11000215 	stw	r4,8(r2)
    50cc:	000b883a 	mov	r5,zero
    50d0:	880d883a 	mov	r6,r17
    50d4:	0006b680 	call	6b68 <memset>
    50d8:	8005883a 	mov	r2,r16
    50dc:	dfc00317 	ldw	ra,12(sp)
    50e0:	dc800217 	ldw	r18,8(sp)
    50e4:	dc400117 	ldw	r17,4(sp)
    50e8:	dc000017 	ldw	r16,0(sp)
    50ec:	dec00404 	addi	sp,sp,16
    50f0:	f800283a 	ret

000050f4 <_cleanup>:
    50f4:	00800074 	movhi	r2,1
    50f8:	10beb404 	addi	r2,r2,-1328
    50fc:	11000017 	ldw	r4,0(r2)
    5100:	00050701 	jmpi	5070 <_cleanup_r>

00005104 <__sinit>:
    5104:	20800e17 	ldw	r2,56(r4)
    5108:	1000401e 	bne	r2,zero,520c <__sinit+0x108>
    510c:	21400117 	ldw	r5,4(r4)
    5110:	01800034 	movhi	r6,0
    5114:	31941c04 	addi	r6,r6,20592
    5118:	20c00217 	ldw	r3,8(r4)
    511c:	21800f15 	stw	r6,60(r4)
    5120:	2080bb04 	addi	r2,r4,748
    5124:	02400044 	movi	r9,1
    5128:	018000c4 	movi	r6,3
    512c:	2180b915 	stw	r6,740(r4)
    5130:	2080ba15 	stw	r2,744(r4)
    5134:	22400e15 	stw	r9,56(r4)
    5138:	20800317 	ldw	r2,12(r4)
    513c:	2000b815 	stw	zero,736(r4)
    5140:	02000074 	movhi	r8,1
    5144:	42214104 	addi	r8,r8,-31484
    5148:	01c00074 	movhi	r7,1
    514c:	39e15604 	addi	r7,r7,-31400
    5150:	01800074 	movhi	r6,1
    5154:	31a17804 	addi	r6,r6,-31264
    5158:	01000074 	movhi	r4,1
    515c:	21218f04 	addi	r4,r4,-31172
    5160:	02800104 	movi	r10,4
    5164:	28000015 	stw	zero,0(r5)
    5168:	28000115 	stw	zero,4(r5)
    516c:	28000215 	stw	zero,8(r5)
    5170:	2a80030d 	sth	r10,12(r5)
    5174:	2800038d 	sth	zero,14(r5)
    5178:	28000415 	stw	zero,16(r5)
    517c:	28000515 	stw	zero,20(r5)
    5180:	28000615 	stw	zero,24(r5)
    5184:	29400715 	stw	r5,28(r5)
    5188:	2a000815 	stw	r8,32(r5)
    518c:	29c00915 	stw	r7,36(r5)
    5190:	29800a15 	stw	r6,40(r5)
    5194:	29000b15 	stw	r4,44(r5)
    5198:	01400284 	movi	r5,10
    519c:	18000015 	stw	zero,0(r3)
    51a0:	18000115 	stw	zero,4(r3)
    51a4:	18000215 	stw	zero,8(r3)
    51a8:	1940030d 	sth	r5,12(r3)
    51ac:	1a40038d 	sth	r9,14(r3)
    51b0:	18000415 	stw	zero,16(r3)
    51b4:	18000515 	stw	zero,20(r3)
    51b8:	18000615 	stw	zero,24(r3)
    51bc:	18c00715 	stw	r3,28(r3)
    51c0:	1a000815 	stw	r8,32(r3)
    51c4:	19c00915 	stw	r7,36(r3)
    51c8:	19800a15 	stw	r6,40(r3)
    51cc:	19000b15 	stw	r4,44(r3)
    51d0:	00c00484 	movi	r3,18
    51d4:	10c0030d 	sth	r3,12(r2)
    51d8:	00c00084 	movi	r3,2
    51dc:	10000015 	stw	zero,0(r2)
    51e0:	10000115 	stw	zero,4(r2)
    51e4:	10000215 	stw	zero,8(r2)
    51e8:	10c0038d 	sth	r3,14(r2)
    51ec:	10000415 	stw	zero,16(r2)
    51f0:	10000515 	stw	zero,20(r2)
    51f4:	10000615 	stw	zero,24(r2)
    51f8:	10800715 	stw	r2,28(r2)
    51fc:	12000815 	stw	r8,32(r2)
    5200:	11c00915 	stw	r7,36(r2)
    5204:	11800a15 	stw	r6,40(r2)
    5208:	11000b15 	stw	r4,44(r2)
    520c:	f800283a 	ret

00005210 <__sfp>:
    5210:	defffc04 	addi	sp,sp,-16
    5214:	00800074 	movhi	r2,1
    5218:	10beb404 	addi	r2,r2,-1328
    521c:	dc400115 	stw	r17,4(sp)
    5220:	14400017 	ldw	r17,0(r2)
    5224:	dc800215 	stw	r18,8(sp)
    5228:	dfc00315 	stw	ra,12(sp)
    522c:	88800e17 	ldw	r2,56(r17)
    5230:	dc000015 	stw	r16,0(sp)
    5234:	2025883a 	mov	r18,r4
    5238:	10002826 	beq	r2,zero,52dc <__sfp+0xcc>
    523c:	8c40b804 	addi	r17,r17,736
    5240:	043fffc4 	movi	r16,-1
    5244:	89400117 	ldw	r5,4(r17)
    5248:	88800217 	ldw	r2,8(r17)
    524c:	297fffc4 	addi	r5,r5,-1
    5250:	28000a16 	blt	r5,zero,527c <__sfp+0x6c>
    5254:	10c0030f 	ldh	r3,12(r2)
    5258:	18000c26 	beq	r3,zero,528c <__sfp+0x7c>
    525c:	10c01a04 	addi	r3,r2,104
    5260:	00000206 	br	526c <__sfp+0x5c>
    5264:	19bfe90f 	ldh	r6,-92(r3)
    5268:	30000826 	beq	r6,zero,528c <__sfp+0x7c>
    526c:	297fffc4 	addi	r5,r5,-1
    5270:	18bffd04 	addi	r2,r3,-12
    5274:	18c01704 	addi	r3,r3,92
    5278:	2c3ffa1e 	bne	r5,r16,5264 <__sfp+0x54>
    527c:	88800017 	ldw	r2,0(r17)
    5280:	10001926 	beq	r2,zero,52e8 <__sfp+0xd8>
    5284:	1023883a 	mov	r17,r2
    5288:	003fee06 	br	5244 <__sfp+0x34>
    528c:	00ffffc4 	movi	r3,-1
    5290:	10c0038d 	sth	r3,14(r2)
    5294:	00c00044 	movi	r3,1
    5298:	10c0030d 	sth	r3,12(r2)
    529c:	10000015 	stw	zero,0(r2)
    52a0:	10000215 	stw	zero,8(r2)
    52a4:	10000115 	stw	zero,4(r2)
    52a8:	10000415 	stw	zero,16(r2)
    52ac:	10000515 	stw	zero,20(r2)
    52b0:	10000615 	stw	zero,24(r2)
    52b4:	10000c15 	stw	zero,48(r2)
    52b8:	10000d15 	stw	zero,52(r2)
    52bc:	10001115 	stw	zero,68(r2)
    52c0:	10001215 	stw	zero,72(r2)
    52c4:	dfc00317 	ldw	ra,12(sp)
    52c8:	dc800217 	ldw	r18,8(sp)
    52cc:	dc400117 	ldw	r17,4(sp)
    52d0:	dc000017 	ldw	r16,0(sp)
    52d4:	dec00404 	addi	sp,sp,16
    52d8:	f800283a 	ret
    52dc:	8809883a 	mov	r4,r17
    52e0:	00051040 	call	5104 <__sinit>
    52e4:	003fd506 	br	523c <__sfp+0x2c>
    52e8:	9009883a 	mov	r4,r18
    52ec:	01400104 	movi	r5,4
    52f0:	000507c0 	call	507c <__sfmoreglue>
    52f4:	88800015 	stw	r2,0(r17)
    52f8:	103fe21e 	bne	r2,zero,5284 <__sfp+0x74>
    52fc:	00800304 	movi	r2,12
    5300:	90800015 	stw	r2,0(r18)
    5304:	0005883a 	mov	r2,zero
    5308:	003fee06 	br	52c4 <__sfp+0xb4>

0000530c <__sfp_lock_acquire>:
    530c:	f800283a 	ret

00005310 <__sfp_lock_release>:
    5310:	f800283a 	ret

00005314 <__sinit_lock_acquire>:
    5314:	f800283a 	ret

00005318 <__sinit_lock_release>:
    5318:	f800283a 	ret

0000531c <__fp_lock_all>:
    531c:	00800074 	movhi	r2,1
    5320:	10beb504 	addi	r2,r2,-1324
    5324:	11000017 	ldw	r4,0(r2)
    5328:	01400034 	movhi	r5,0
    532c:	29541804 	addi	r5,r5,20576
    5330:	0005c3c1 	jmpi	5c3c <_fwalk>

00005334 <__fp_unlock_all>:
    5334:	00800074 	movhi	r2,1
    5338:	10beb504 	addi	r2,r2,-1324
    533c:	11000017 	ldw	r4,0(r2)
    5340:	01400034 	movhi	r5,0
    5344:	29541a04 	addi	r5,r5,20584
    5348:	0005c3c1 	jmpi	5c3c <_fwalk>

0000534c <_malloc_trim_r>:
    534c:	defffb04 	addi	sp,sp,-20
    5350:	dcc00315 	stw	r19,12(sp)
    5354:	dc800215 	stw	r18,8(sp)
    5358:	dc400115 	stw	r17,4(sp)
    535c:	dc000015 	stw	r16,0(sp)
    5360:	2827883a 	mov	r19,r5
    5364:	dfc00415 	stw	ra,16(sp)
    5368:	04400074 	movhi	r17,1
    536c:	8c788a04 	addi	r17,r17,-7640
    5370:	2021883a 	mov	r16,r4
    5374:	000b46c0 	call	b46c <__malloc_lock>
    5378:	88800217 	ldw	r2,8(r17)
    537c:	14800117 	ldw	r18,4(r2)
    5380:	00bfff04 	movi	r2,-4
    5384:	90a4703a 	and	r18,r18,r2
    5388:	9083fbc4 	addi	r2,r18,4079
